	.file	"minilua.c"
	.section	.text.unlikely,"x"
LCOLDB0:
	.text
LHOTB0:
	.p2align 4,,15
	.def	_luaT_gettm;	.scl	3;	.type	32;	.endef
_luaT_gettm:
LFB75:
	.cfi_startproc
	pushl	%edi
	.cfi_def_cfa_offset 8
	.cfi_offset 7, -8
	pushl	%esi
	.cfi_def_cfa_offset 12
	.cfi_offset 6, -12
	movl	%ecx, %esi
	pushl	%ebx
	.cfi_def_cfa_offset 16
	.cfi_offset 3, -16
	movzbl	7(%eax), %ecx
	movl	$1, %ebx
	movl	%eax, %edi
	sall	%cl, %ebx
	leal	-1(%ebx), %ecx
	andl	8(%esi), %ecx
	sall	$5, %ecx
	addl	16(%eax), %ecx
	jmp	L5
	.p2align 4,,10
L2:
	movl	28(%ecx), %ecx
	testl	%ecx, %ecx
	je	L3
L5:
	cmpl	$4, 24(%ecx)
	jne	L2
	cmpl	16(%ecx), %esi
	jne	L2
	movl	%ecx, %eax
	movl	8(%ecx), %ecx
	testl	%ecx, %ecx
	je	L3
	popl	%ebx
	.cfi_remember_state
	.cfi_restore 3
	.cfi_def_cfa_offset 12
	popl	%esi
	.cfi_restore 6
	.cfi_def_cfa_offset 8
	popl	%edi
	.cfi_restore 7
	.cfi_def_cfa_offset 4
	ret
	.p2align 4,,10
L3:
	.cfi_restore_state
	movl	$1, %eax
	movl	%edx, %ecx
	sall	%cl, %eax
	orb	%al, 6(%edi)
	xorl	%eax, %eax
	popl	%ebx
	.cfi_restore 3
	.cfi_def_cfa_offset 12
	popl	%esi
	.cfi_restore 6
	.cfi_def_cfa_offset 8
	popl	%edi
	.cfi_restore 7
	.cfi_def_cfa_offset 4
	ret
	.cfi_endproc
LFE75:
	.section	.text.unlikely,"x"
LCOLDE0:
	.text
LHOTE0:
	.section	.text.unlikely,"x"
LCOLDB1:
	.text
LHOTB1:
	.p2align 4,,15
	.def	_reallymarkobject;	.scl	3;	.type	32;	.endef
_reallymarkobject:
LFB136:
	.cfi_startproc
	pushl	%esi
	.cfi_def_cfa_offset 8
	.cfi_offset 6, -8
	pushl	%ebx
	.cfi_def_cfa_offset 12
	.cfi_offset 3, -12
	movl	%eax, %esi
	movl	%edx, %ebx
	subl	$4, %esp
	.cfi_def_cfa_offset 16
	movzbl	5(%edx), %eax
L19:
	andl	$-4, %eax
	movl	%eax, %ecx
	movb	%al, 5(%ebx)
	movzbl	4(%ebx), %eax
	subl	$5, %eax
	cmpb	$5, %al
	ja	L9
	movzbl	%al, %eax
	jmp	*L12(,%eax,4)
	.section .rdata,"dr"
	.align 4
L12:
	.long	L11
	.long	L13
	.long	L14
	.long	L15
	.long	L16
	.long	L17
	.text
	.p2align 4,,10
L16:
	movl	36(%esi), %eax
	movl	%eax, 68(%ebx)
	movl	%ebx, 36(%esi)
L9:
	addl	$4, %esp
	.cfi_remember_state
	.cfi_def_cfa_offset 12
	popl	%ebx
	.cfi_restore 3
	.cfi_def_cfa_offset 8
	popl	%esi
	.cfi_restore 6
	.cfi_def_cfa_offset 4
	ret
	.p2align 4,,10
L15:
	.cfi_restore_state
	movl	36(%esi), %eax
	movl	%eax, 108(%ebx)
	movl	%ebx, 36(%esi)
	addl	$4, %esp
	.cfi_remember_state
	.cfi_def_cfa_offset 12
	popl	%ebx
	.cfi_restore 3
	.cfi_def_cfa_offset 8
	popl	%esi
	.cfi_restore 6
	.cfi_def_cfa_offset 4
	ret
	.p2align 4,,10
L17:
	.cfi_restore_state
	movl	8(%ebx), %eax
	cmpl	$3, 8(%eax)
	jle	L20
	movl	(%eax), %edx
	testb	$3, 5(%edx)
	jne	L33
L20:
	leal	16(%ebx), %edx
	cmpl	%edx, %eax
	jne	L9
	orb	$4, 5(%ebx)
	jmp	L9
	.p2align 4,,10
L11:
	movl	36(%esi), %eax
	movl	%eax, 24(%ebx)
	movl	%ebx, 36(%esi)
	addl	$4, %esp
	.cfi_remember_state
	.cfi_def_cfa_offset 12
	popl	%ebx
	.cfi_restore 3
	.cfi_def_cfa_offset 8
	popl	%esi
	.cfi_restore 6
	.cfi_def_cfa_offset 4
	ret
	.p2align 4,,10
L13:
	.cfi_restore_state
	movl	36(%esi), %eax
	movl	%eax, 8(%ebx)
	movl	%ebx, 36(%esi)
	addl	$4, %esp
	.cfi_remember_state
	.cfi_def_cfa_offset 12
	popl	%ebx
	.cfi_restore 3
	.cfi_def_cfa_offset 8
	popl	%esi
	.cfi_restore 6
	.cfi_def_cfa_offset 4
	ret
	.p2align 4,,10
L14:
	.cfi_restore_state
	movl	8(%ebx), %edx
	movl	%ecx, %eax
	orl	$4, %eax
	movb	%al, 5(%ebx)
	testl	%edx, %edx
	je	L18
	testb	$3, 5(%edx)
	jne	L34
L18:
	movl	12(%ebx), %ebx
	movzbl	5(%ebx), %eax
	testb	$3, %al
	jne	L19
	jmp	L9
	.p2align 4,,10
L34:
	movl	%esi, %eax
	call	_reallymarkobject
	jmp	L18
	.p2align 4,,10
L33:
	movl	%esi, %eax
	call	_reallymarkobject
	movl	8(%ebx), %eax
	jmp	L20
	.cfi_endproc
LFE136:
	.section	.text.unlikely,"x"
LCOLDE1:
	.text
LHOTE1:
	.section	.text.unlikely,"x"
LCOLDB2:
	.text
LHOTB2:
	.p2align 4,,15
	.def	_luaZ_fill;	.scl	3;	.type	32;	.endef
_luaZ_fill:
LFB190:
	.cfi_startproc
	pushl	%ebx
	.cfi_def_cfa_offset 8
	.cfi_offset 3, -8
	movl	%eax, %ebx
	subl	$40, %esp
	.cfi_def_cfa_offset 48
	leal	28(%esp), %eax
	movl	%eax, 8(%esp)
	movl	12(%ebx), %eax
	movl	%eax, 4(%esp)
	movl	16(%ebx), %eax
	movl	%eax, (%esp)
	call	*8(%ebx)
	testl	%eax, %eax
	je	L38
	movl	28(%esp), %edx
	testl	%edx, %edx
	je	L38
	subl	$1, %edx
	movl	%edx, (%ebx)
	leal	1(%eax), %edx
	movl	%edx, 4(%ebx)
	movzbl	(%eax), %eax
L36:
	addl	$40, %esp
	.cfi_remember_state
	.cfi_def_cfa_offset 8
	popl	%ebx
	.cfi_restore 3
	.cfi_def_cfa_offset 4
	ret
	.p2align 4,,10
L38:
	.cfi_restore_state
	movl	$-1, %eax
	jmp	L36
	.cfi_endproc
LFE190:
	.section	.text.unlikely,"x"
LCOLDE2:
	.text
LHOTE2:
	.section	.text.unlikely,"x"
LCOLDB3:
	.text
LHOTB3:
	.p2align 4,,15
	.def	_getS;	.scl	3;	.type	32;	.endef
_getS:
LFB437:
	.cfi_startproc
	movl	8(%esp), %eax
	movl	4(%eax), %edx
	testl	%edx, %edx
	je	L42
	movl	12(%esp), %ecx
	movl	%edx, (%ecx)
	movl	$0, 4(%eax)
	movl	(%eax), %eax
	ret
	.p2align 4,,10
L42:
	xorl	%eax, %eax
	ret
	.cfi_endproc
LFE437:
	.section	.text.unlikely,"x"
LCOLDE3:
	.text
LHOTE3:
	.section .rdata,"dr"
LC4:
	.ascii "\12\15\0"
	.section	.text.unlikely,"x"
LCOLDB5:
	.text
LHOTB5:
	.p2align 4,,15
	.def	_luaO_chunkid;	.scl	3;	.type	32;	.endef
_luaO_chunkid:
LFB73:
	.cfi_startproc
	pushl	%edi
	.cfi_def_cfa_offset 8
	.cfi_offset 7, -8
	pushl	%esi
	.cfi_def_cfa_offset 12
	.cfi_offset 6, -12
	movl	%ecx, %edi
	pushl	%ebx
	.cfi_def_cfa_offset 16
	.cfi_offset 3, -16
	movl	%eax, %ebx
	movl	%edx, %esi
	subl	$16, %esp
	.cfi_def_cfa_offset 32
	movzbl	(%edx), %eax
	cmpb	$61, %al
	je	L51
	cmpb	$64, %al
	je	L52
	movl	%edx, (%esp)
	movl	$LC4, 4(%esp)
	call	_strcspn
	leal	-17(%edi), %ecx
	movl	$34, %edx
	movl	$1920234331, (%ebx)
	movl	$543649385, 4(%ebx)
	movw	%dx, 8(%ebx)
	cmpl	%ecx, %eax
	cmovbe	%eax, %ecx
	cmpb	$0, (%esi,%ecx)
	jne	L53
	leal	9(%ebx), %eax
	movl	%esi, 4(%esp)
	movl	%eax, (%esp)
	call	_strcpy
L49:
	movl	%ebx, (%esp)
	call	_strlen
	addl	%eax, %ebx
	movl	$23842, %eax
	movw	%ax, (%ebx)
	movb	$0, 2(%ebx)
L43:
	addl	$16, %esp
	.cfi_remember_state
	.cfi_def_cfa_offset 16
	popl	%ebx
	.cfi_restore 3
	.cfi_def_cfa_offset 12
	popl	%esi
	.cfi_restore 6
	.cfi_def_cfa_offset 8
	popl	%edi
	.cfi_restore 7
	.cfi_def_cfa_offset 4
	ret
	.p2align 4,,10
L53:
	.cfi_restore_state
	movl	%ecx, 8(%esp)
	movl	%esi, 4(%esp)
	movl	%ebx, (%esp)
	call	_strncat
	movl	%ebx, (%esp)
	call	_strlen
	movl	$3026478, (%ebx,%eax)
	jmp	L49
	.p2align 4,,10
L52:
	addl	$1, %esi
	subl	$8, %edi
	movl	%esi, (%esp)
	call	_strlen
	cmpl	%eax, %edi
	movb	$0, (%ebx)
	jnb	L47
	subl	%edi, %eax
	movl	$3026478, (%ebx)
	addl	%eax, %esi
L47:
	movl	%esi, 4(%esp)
	movl	%ebx, (%esp)
	call	_strcat
	addl	$16, %esp
	.cfi_remember_state
	.cfi_def_cfa_offset 16
	popl	%ebx
	.cfi_restore 3
	.cfi_def_cfa_offset 12
	popl	%esi
	.cfi_restore 6
	.cfi_def_cfa_offset 8
	popl	%edi
	.cfi_restore 7
	.cfi_def_cfa_offset 4
	ret
	.p2align 4,,10
L51:
	.cfi_restore_state
	addl	$1, %esi
	movl	%ecx, 8(%esp)
	movl	%ebx, (%esp)
	movl	%esi, 4(%esp)
	call	_strncpy
	movb	$0, -1(%ebx,%edi)
	jmp	L43
	.cfi_endproc
LFE73:
	.section	.text.unlikely,"x"
LCOLDE5:
	.text
LHOTE5:
	.section	.text.unlikely,"x"
LCOLDB6:
	.text
LHOTB6:
	.p2align 4,,15
	.def	_l_alloc;	.scl	3;	.type	32;	.endef
_l_alloc:
LFB439:
	.cfi_startproc
	subl	$28, %esp
	.cfi_def_cfa_offset 32
	movl	44(%esp), %eax
	movl	36(%esp), %edx
	testl	%eax, %eax
	je	L58
	movl	%eax, 36(%esp)
	movl	%edx, 32(%esp)
	addl	$28, %esp
	.cfi_remember_state
	.cfi_def_cfa_offset 4
	jmp	_realloc
	.p2align 4,,10
L58:
	.cfi_restore_state
	movl	%edx, (%esp)
	call	_free
	xorl	%eax, %eax
	addl	$28, %esp
	.cfi_def_cfa_offset 4
	ret
	.cfi_endproc
LFE439:
	.section	.text.unlikely,"x"
LCOLDE6:
	.text
LHOTE6:
	.section	.text.unlikely,"x"
LCOLDB7:
	.text
LHOTB7:
	.p2align 4,,15
	.def	_luaD_rawrunprotected;	.scl	3;	.type	32;	.endef
_luaD_rawrunprotected:
LFB91:
	.cfi_startproc
	pushl	%ebp
	.cfi_def_cfa_offset 8
	.cfi_offset 5, -8
	movl	%esp, %ebp
	.cfi_def_cfa_register 5
	subl	$120, %esp
	movl	%eax, -92(%ebp)
	movl	%edx, -96(%ebp)
	movl	%eax, %edx
	movl	112(%eax), %eax
	movl	%ecx, -100(%ebp)
	movl	$0, -12(%ebp)
	movl	%eax, -80(%ebp)
	leal	-80(%ebp), %eax
	movl	%eax, 112(%edx)
	leal	-76(%ebp), %eax
	movl	$0, 4(%esp)
	movl	%eax, (%esp)
	call	__setjmp3
	testl	%eax, %eax
	jne	L63
	movl	-100(%ebp), %eax
	movl	%eax, 4(%esp)
	movl	-92(%ebp), %eax
	movl	%eax, (%esp)
	movl	-96(%ebp), %eax
	call	*%eax
L63:
	movl	-80(%ebp), %eax
	movl	-92(%ebp), %ecx
	movl	%eax, 112(%ecx)
	movl	-12(%ebp), %eax
	leave
	.cfi_restore 5
	.cfi_def_cfa 4, 4
	ret
	.cfi_endproc
LFE91:
	.section	.text.unlikely,"x"
LCOLDE7:
	.text
LHOTE7:
	.section	.text.unlikely,"x"
LCOLDB8:
	.text
LHOTB8:
	.p2align 4,,15
	.def	_match_class;	.scl	3;	.type	32;	.endef
_match_class:
LFB522:
	.cfi_startproc
	pushl	%edi
	.cfi_def_cfa_offset 8
	.cfi_offset 7, -8
	pushl	%esi
	.cfi_def_cfa_offset 12
	.cfi_offset 6, -12
	movl	%edx, %esi
	pushl	%ebx
	.cfi_def_cfa_offset 16
	.cfi_offset 3, -16
	movl	%eax, %ebx
	subl	$16, %esp
	.cfi_def_cfa_offset 32
	movl	%edx, (%esp)
	call	*__imp__tolower
	subl	$97, %eax
	cmpl	$25, %eax
	ja	L67
	jmp	*L69(,%eax,4)
	.section .rdata,"dr"
	.align 4
L69:
	.long	L68
	.long	L67
	.long	L70
	.long	L71
	.long	L67
	.long	L67
	.long	L67
	.long	L67
	.long	L67
	.long	L67
	.long	L67
	.long	L72
	.long	L67
	.long	L67
	.long	L67
	.long	L73
	.long	L67
	.long	L67
	.long	L74
	.long	L67
	.long	L75
	.long	L67
	.long	L76
	.long	L77
	.long	L67
	.long	L78
	.text
	.p2align 4,,10
L78:
	testl	%ebx, %ebx
	movl	__imp__islower, %edi
	sete	%bl
	movzbl	%bl, %ebx
	.p2align 4,,10
L79:
	movl	%esi, (%esp)
	call	*%edi
	testl	%eax, %eax
	movl	%ebx, %edx
	jne	L80
	testl	%ebx, %ebx
	sete	%dl
	movzbl	%dl, %edx
L80:
	addl	$16, %esp
	.cfi_remember_state
	.cfi_def_cfa_offset 16
	movl	%edx, %eax
	popl	%ebx
	.cfi_restore 3
	.cfi_def_cfa_offset 12
	popl	%esi
	.cfi_restore 6
	.cfi_def_cfa_offset 8
	popl	%edi
	.cfi_restore 7
	.cfi_def_cfa_offset 4
	ret
	.p2align 4,,10
L68:
	.cfi_restore_state
	movl	%ebx, (%esp)
	call	*__imp__isalpha
	movl	__imp__islower, %edi
	movl	%eax, %ebx
	jmp	L79
	.p2align 4,,10
L70:
	movl	%ebx, (%esp)
	call	*__imp__iscntrl
	movl	__imp__islower, %edi
	movl	%eax, %ebx
	jmp	L79
	.p2align 4,,10
L71:
	subl	$48, %ebx
	movl	__imp__islower, %edi
	cmpl	$9, %ebx
	setbe	%bl
	movzbl	%bl, %ebx
	jmp	L79
	.p2align 4,,10
L72:
	movl	%ebx, (%esp)
	movl	__imp__islower, %edi
	call	*%edi
	movl	%eax, %ebx
	jmp	L79
	.p2align 4,,10
L73:
	movl	%ebx, (%esp)
	call	*__imp__ispunct
	movl	__imp__islower, %edi
	movl	%eax, %ebx
	jmp	L79
	.p2align 4,,10
L74:
	movl	%ebx, (%esp)
	call	*__imp__isspace
	movl	__imp__islower, %edi
	movl	%eax, %ebx
	jmp	L79
	.p2align 4,,10
L75:
	movl	%ebx, (%esp)
	call	*__imp__isupper
	movl	__imp__islower, %edi
	movl	%eax, %ebx
	jmp	L79
	.p2align 4,,10
L76:
	movl	%ebx, (%esp)
	call	*__imp__isalnum
	movl	__imp__islower, %edi
	movl	%eax, %ebx
	jmp	L79
	.p2align 4,,10
L77:
	movl	%ebx, (%esp)
	call	*__imp__isxdigit
	movl	__imp__islower, %edi
	movl	%eax, %ebx
	jmp	L79
	.p2align 4,,10
L67:
	xorl	%edx, %edx
	cmpl	%ebx, %esi
	sete	%dl
	jmp	L80
	.cfi_endproc
LFE522:
	.section	.text.unlikely,"x"
LCOLDE8:
	.text
LHOTE8:
	.section	.text.unlikely,"x"
LCOLDB10:
	.text
LHOTB10:
	.p2align 4,,15
	.def	_luaO_rawequalObj;	.scl	3;	.type	32;	.endef
_luaO_rawequalObj:
LFB68:
	.cfi_startproc
	movl	8(%eax), %ecx
	cmpl	8(%edx), %ecx
	je	L95
	xorl	%eax, %eax
	ret
	.p2align 4,,10
L95:
	cmpl	$1, %ecx
	pushl	%ebx
	.cfi_def_cfa_offset 8
	.cfi_offset 3, -8
	movl	%eax, %ebx
	je	L85
	jle	L96
	cmpl	$2, %ecx
	je	L85
	cmpl	$3, %ecx
	jne	L85
	fldl	(%eax)
	xorl	%eax, %eax
	fldl	(%edx)
	movl	$0, %edx
	fucomip	%st(1), %st
	fstp	%st(0)
	setnp	%al
	cmovne	%edx, %eax
L84:
	popl	%ebx
	.cfi_remember_state
	.cfi_restore 3
	.cfi_def_cfa_offset 4
	ret
	.p2align 4,,10
L96:
	.cfi_restore_state
	testl	%ecx, %ecx
	movl	$1, %eax
	je	L84
L85:
	movl	(%edx), %eax
	cmpl	%eax, (%ebx)
	popl	%ebx
	.cfi_restore 3
	.cfi_def_cfa_offset 4
	sete	%al
	movzbl	%al, %eax
	ret
	.cfi_endproc
LFE68:
	.section	.text.unlikely,"x"
LCOLDE10:
	.text
LHOTE10:
	.section	.text.unlikely,"x"
LCOLDB12:
	.text
LHOTB12:
	.p2align 4,,15
	.def	_mainposition;	.scl	3;	.type	32;	.endef
_mainposition:
LFB110:
	.cfi_startproc
	pushl	%esi
	.cfi_def_cfa_offset 8
	.cfi_offset 6, -8
	pushl	%ebx
	.cfi_def_cfa_offset 12
	.cfi_offset 3, -12
	movl	%eax, %ebx
	subl	$12, %esp
	.cfi_def_cfa_offset 24
	movl	8(%edx), %eax
	cmpl	$2, %eax
	je	L98
	jle	L110
	cmpl	$3, %eax
	je	L102
	cmpl	$4, %eax
	jne	L98
	movzbl	7(%ebx), %ecx
	movl	(%edx), %edx
	movl	$1, %eax
	sall	%cl, %eax
	subl	$1, %eax
	andl	8(%edx), %eax
	sall	$5, %eax
	addl	16(%ebx), %eax
	addl	$12, %esp
	.cfi_remember_state
	.cfi_def_cfa_offset 12
	popl	%ebx
	.cfi_restore 3
	.cfi_def_cfa_offset 8
	popl	%esi
	.cfi_restore 6
	.cfi_def_cfa_offset 4
	ret
	.p2align 4,,10
L102:
	.cfi_restore_state
	fldl	(%edx)
	fstl	(%esp)
	fldz
	fxch	%st(1)
	fucomip	%st(1), %st
	fstp	%st(0)
	jp	L104
	jne	L104
	movl	16(%ebx), %eax
	addl	$12, %esp
	.cfi_remember_state
	.cfi_def_cfa_offset 12
	popl	%ebx
	.cfi_restore 3
	.cfi_def_cfa_offset 8
	popl	%esi
	.cfi_restore 6
	.cfi_def_cfa_offset 4
	ret
	.p2align 4,,10
L98:
	.cfi_restore_state
	movzbl	7(%ebx), %ecx
	movl	$1, %eax
	sall	%cl, %eax
	leal	-1(%eax), %ecx
	movl	(%edx), %eax
	orl	$1, %ecx
L109:
	xorl	%edx, %edx
	divl	%ecx
	movl	16(%ebx), %eax
	addl	$12, %esp
	.cfi_remember_state
	.cfi_def_cfa_offset 12
	popl	%ebx
	.cfi_restore 3
	.cfi_def_cfa_offset 8
	popl	%esi
	.cfi_restore 6
	.cfi_def_cfa_offset 4
	sall	$5, %edx
	addl	%edx, %eax
	ret
	.p2align 4,,10
L110:
	.cfi_restore_state
	cmpl	$1, %eax
	jne	L98
	movzbl	7(%ebx), %ecx
	sall	%cl, %eax
	subl	$1, %eax
	andl	(%edx), %eax
	sall	$5, %eax
	addl	16(%ebx), %eax
	addl	$12, %esp
	.cfi_remember_state
	.cfi_def_cfa_offset 12
	popl	%ebx
	.cfi_restore 3
	.cfi_def_cfa_offset 8
	popl	%esi
	.cfi_restore 6
	.cfi_def_cfa_offset 4
	ret
	.p2align 4,,10
L104:
	.cfi_restore_state
	movzbl	7(%ebx), %ecx
	movl	$1, %esi
	movl	(%esp), %edx
	movl	4(%esp), %eax
	sall	%cl, %esi
	addl	%edx, %eax
	leal	-1(%esi), %ecx
	orl	$1, %ecx
	jmp	L109
	.cfi_endproc
LFE110:
	.section	.text.unlikely,"x"
LCOLDE12:
	.text
LHOTE12:
	.section	.text.unlikely,"x"
LCOLDB13:
	.text
LHOTB13:
	.p2align 4,,15
	.def	_luaT_gettmbyobj.isra.10;	.scl	3;	.type	32;	.endef
_luaT_gettmbyobj.isra.10:
LFB574:
	.cfi_startproc
	cmpl	$5, %ecx
	pushl	%ebx
	.cfi_def_cfa_offset 8
	.cfi_offset 3, -8
	je	L114
	cmpl	$7, %ecx
	jne	L123
L114:
	movl	8(%edx), %ebx
L115:
	testl	%ebx, %ebx
	je	L119
	movl	(%eax), %eax
	movl	8(%esp), %edx
	movzbl	7(%ebx), %ecx
	movl	188(%eax,%edx,4), %edx
	movl	$1, %eax
	sall	%cl, %eax
	subl	$1, %eax
	andl	8(%edx), %eax
	sall	$5, %eax
	addl	16(%ebx), %eax
	jmp	L118
	.p2align 4,,10
L117:
	movl	28(%eax), %eax
	testl	%eax, %eax
	je	L119
L118:
	cmpl	$4, 24(%eax)
	jne	L117
	cmpl	16(%eax), %edx
	jne	L117
	popl	%ebx
	.cfi_remember_state
	.cfi_restore 3
	.cfi_def_cfa_offset 4
	ret
	.p2align 4,,10
L119:
	.cfi_restore_state
	movl	$_luaO_nilobject_, %eax
	popl	%ebx
	.cfi_remember_state
	.cfi_restore 3
	.cfi_def_cfa_offset 4
	ret
	.p2align 4,,10
L123:
	.cfi_restore_state
	movl	(%eax), %edx
	movl	152(%edx,%ecx,4), %ebx
	jmp	L115
	.cfi_endproc
LFE574:
	.section	.text.unlikely,"x"
LCOLDE13:
	.text
LHOTE13:
	.section	.text.unlikely,"x"
LCOLDB14:
	.text
LHOTB14:
	.p2align 4,,15
	.def	_luaC_separateudata.isra.12;	.scl	3;	.type	32;	.endef
_luaC_separateudata.isra.12:
LFB576:
	.cfi_startproc
	pushl	%ebp
	.cfi_def_cfa_offset 8
	.cfi_offset 5, -8
	pushl	%edi
	.cfi_def_cfa_offset 12
	.cfi_offset 7, -12
	movl	%edx, %edi
	pushl	%esi
	.cfi_def_cfa_offset 16
	.cfi_offset 6, -16
	pushl	%ebx
	.cfi_def_cfa_offset 20
	.cfi_offset 3, -20
	subl	$8, %esp
	.cfi_def_cfa_offset 28
	movl	(%eax), %ebp
	movl	%eax, 4(%esp)
	movl	$0, (%esp)
	movl	112(%ebp), %esi
L125:
	movl	(%esi), %ebx
	testl	%ebx, %ebx
	je	L141
	.p2align 4,,10
L132:
	movzbl	5(%ebx), %edx
	movl	%edx, %eax
	andl	$3, %eax
	orl	%edi, %eax
	je	L140
	testb	$8, %dl
	jne	L140
	movl	8(%ebx), %eax
	testl	%eax, %eax
	je	L129
	testb	$4, 6(%eax)
	je	L142
L129:
	orl	$8, %edx
	movb	%dl, 5(%ebx)
L140:
	movl	%ebx, %esi
	movl	(%esi), %ebx
	testl	%ebx, %ebx
	jne	L132
L141:
	movl	(%esp), %eax
	addl	$8, %esp
	.cfi_remember_state
	.cfi_def_cfa_offset 20
	popl	%ebx
	.cfi_restore 3
	.cfi_def_cfa_offset 16
	popl	%esi
	.cfi_restore 6
	.cfi_def_cfa_offset 12
	popl	%edi
	.cfi_restore 7
	.cfi_def_cfa_offset 8
	popl	%ebp
	.cfi_restore 5
	.cfi_def_cfa_offset 4
	ret
	.p2align 4,,10
L142:
	.cfi_restore_state
	movl	4(%esp), %ecx
	movl	(%ecx), %edx
	movl	196(%edx), %ecx
	movl	$2, %edx
	call	_luaT_gettm
	testl	%eax, %eax
	je	L143
	movl	16(%ebx), %eax
	movl	(%esp), %ecx
	orb	$8, 5(%ebx)
	leal	24(%ecx,%eax), %eax
	movl	%eax, (%esp)
	movl	(%ebx), %eax
	movl	%eax, (%esi)
	movl	48(%ebp), %eax
	testl	%eax, %eax
	je	L144
	movl	(%eax), %eax
	movl	%eax, (%ebx)
	movl	48(%ebp), %eax
	movl	%ebx, (%eax)
	movl	%ebx, 48(%ebp)
	jmp	L125
L144:
	movl	%ebx, (%ebx)
	movl	%ebx, 48(%ebp)
	jmp	L125
L143:
	movzbl	5(%ebx), %edx
	jmp	L129
	.cfi_endproc
LFE576:
	.section	.text.unlikely,"x"
LCOLDE14:
	.text
LHOTE14:
	.section	.text.unlikely,"x"
LCOLDB15:
	.text
LHOTB15:
	.p2align 4,,15
	.def	_index2adr;	.scl	3;	.type	32;	.endef
_index2adr:
LFB352:
	.cfi_startproc
	testl	%edx, %edx
	jle	L146
	addl	$268435455, %edx
	movl	$_luaO_nilobject_, %ecx
	sall	$4, %edx
	addl	12(%eax), %edx
	cmpl	8(%eax), %edx
	cmovb	%edx, %ecx
L158:
	movl	%ecx, %eax
	ret
	.p2align 4,,10
L146:
	cmpl	$-9999, %edx
	jge	L159
	cmpl	$-10001, %edx
	je	L150
	cmpl	$-10000, %edx
	je	L151
	cmpl	$-10002, %edx
	leal	72(%eax), %ecx
	je	L158
	pushl	%esi
	.cfi_def_cfa_offset 8
	.cfi_offset 6, -8
	pushl	%ebx
	.cfi_def_cfa_offset 12
	.cfi_offset 3, -12
	movl	$_luaO_nilobject_, %ecx
	movl	20(%eax), %eax
	movl	4(%eax), %eax
	movl	(%eax), %ebx
	movl	$-10002, %eax
	subl	%edx, %eax
	movzbl	7(%ebx), %esi
	cmpl	%esi, %eax
	jg	L147
	movl	$-10002, %eax
	subl	%edx, %eax
	sall	$4, %eax
	leal	8(%ebx,%eax), %ecx
L147:
	movl	%ecx, %eax
	popl	%ebx
	.cfi_restore 3
	.cfi_def_cfa_offset 8
	popl	%esi
	.cfi_restore 6
	.cfi_def_cfa_offset 4
	ret
	.p2align 4,,10
L159:
	movl	8(%eax), %ecx
	sall	$4, %edx
	addl	%edx, %ecx
	movl	%ecx, %eax
	ret
	.p2align 4,,10
L151:
	movl	16(%eax), %edx
	leal	96(%edx), %ecx
	jmp	L158
	.p2align 4,,10
L150:
	movl	20(%eax), %edx
	leal	88(%eax), %ecx
	movl	4(%edx), %edx
	movl	(%edx), %edx
	movl	12(%edx), %edx
	movl	$5, 96(%eax)
	movl	%edx, 88(%eax)
	jmp	L158
	.cfi_endproc
LFE352:
	.section	.text.unlikely,"x"
LCOLDE15:
	.text
LHOTE15:
	.section	.text.unlikely,"x"
LCOLDB16:
	.text
LHOTB16:
	.p2align 4,,15
	.def	_lua_insert;	.scl	3;	.type	32;	.endef
_lua_insert:
LFB359:
	.cfi_startproc
	pushl	%esi
	.cfi_def_cfa_offset 8
	.cfi_offset 6, -8
	pushl	%ebx
	.cfi_def_cfa_offset 12
	.cfi_offset 3, -12
	movl	%eax, %ebx
	call	_index2adr
	movl	8(%ebx), %ecx
	cmpl	%ecx, %eax
	movl	%ecx, %edx
	jnb	L163
	.p2align 4,,10
L164:
	movl	-12(%edx), %esi
	movl	-16(%edx), %ebx
	subl	$16, %edx
	movl	%esi, 20(%edx)
	movl	8(%edx), %esi
	movl	%ebx, 16(%edx)
	movl	%esi, 24(%edx)
	cmpl	%edx, %eax
	jb	L164
L163:
	movl	4(%ecx), %esi
	movl	(%ecx), %ebx
	movl	%esi, 4(%eax)
	movl	8(%ecx), %edx
	movl	%ebx, (%eax)
	movl	%edx, 8(%eax)
	popl	%ebx
	.cfi_restore 3
	.cfi_def_cfa_offset 8
	popl	%esi
	.cfi_restore 6
	.cfi_def_cfa_offset 4
	ret
	.cfi_endproc
LFE359:
	.section	.text.unlikely,"x"
LCOLDE16:
	.text
LHOTE16:
	.section	.text.unlikely,"x"
LCOLDB17:
	.text
LHOTB17:
	.p2align 4,,15
	.def	_lua_pushvalue;	.scl	3;	.type	32;	.endef
_lua_pushvalue:
LFB361:
	.cfi_startproc
	pushl	%edi
	.cfi_def_cfa_offset 8
	.cfi_offset 7, -8
	pushl	%esi
	.cfi_def_cfa_offset 12
	.cfi_offset 6, -12
	pushl	%ebx
	.cfi_def_cfa_offset 16
	.cfi_offset 3, -16
	movl	%eax, %ebx
	call	_index2adr
	movl	8(%ebx), %edx
	movl	4(%eax), %edi
	movl	(%eax), %esi
	movl	%edi, 4(%edx)
	movl	8(%eax), %eax
	addl	$16, %edx
	movl	%esi, -16(%edx)
	movl	%eax, -8(%edx)
	movl	%edx, 8(%ebx)
	popl	%ebx
	.cfi_restore 3
	.cfi_def_cfa_offset 12
	popl	%esi
	.cfi_restore 6
	.cfi_def_cfa_offset 8
	popl	%edi
	.cfi_restore 7
	.cfi_def_cfa_offset 4
	ret
	.cfi_endproc
LFE361:
	.section	.text.unlikely,"x"
LCOLDE17:
	.text
LHOTE17:
	.section	.text.unlikely,"x"
LCOLDB18:
	.text
LHOTB18:
	.p2align 4,,15
	.def	_lua_setmetatable;	.scl	3;	.type	32;	.endef
_lua_setmetatable:
LFB397:
	.cfi_startproc
	pushl	%esi
	.cfi_def_cfa_offset 8
	.cfi_offset 6, -8
	pushl	%ebx
	.cfi_def_cfa_offset 12
	.cfi_offset 3, -12
	movl	%eax, %ebx
	subl	$4, %esp
	.cfi_def_cfa_offset 16
	call	_index2adr
	movl	8(%ebx), %edx
	movl	-8(%edx), %ecx
	testl	%ecx, %ecx
	je	L172
	movl	8(%eax), %ecx
	movl	-16(%edx), %edx
	cmpl	$5, %ecx
	movl	%edx, %esi
	jne	L202
	movl	(%eax), %ecx
	testl	%edx, %edx
	movl	%edx, 8(%ecx)
	je	L177
	testb	$3, 5(%edx)
	je	L177
	movl	(%eax), %eax
	movzbl	5(%eax), %edx
	testb	$4, %dl
	je	L177
	movl	16(%ebx), %ecx
	andl	$-5, %edx
	movb	%dl, 5(%eax)
	movl	40(%ecx), %edx
	movl	%edx, 24(%eax)
	movl	%eax, 40(%ecx)
	jmp	L177
	.p2align 4,,10
L172:
	movl	8(%eax), %ecx
	cmpl	$5, %ecx
	je	L201
	cmpl	$7, %ecx
	je	L201
	xorl	%esi, %esi
L173:
	movl	16(%ebx), %eax
	movl	%esi, 152(%eax,%ecx,4)
L177:
	subl	$16, 8(%ebx)
	addl	$4, %esp
	.cfi_remember_state
	.cfi_def_cfa_offset 12
	movl	$1, %eax
	popl	%ebx
	.cfi_restore 3
	.cfi_def_cfa_offset 8
	popl	%esi
	.cfi_restore 6
	.cfi_def_cfa_offset 4
	ret
	.p2align 4,,10
L202:
	.cfi_restore_state
	cmpl	$7, %ecx
	jne	L173
	movl	(%eax), %ecx
	testl	%edx, %edx
	movl	%edx, 8(%ecx)
	je	L177
	testb	$3, 5(%edx)
	je	L177
	movl	(%eax), %esi
	movzbl	5(%esi), %ecx
	testb	$4, %cl
	je	L177
	movl	16(%ebx), %eax
	cmpb	$1, 21(%eax)
	je	L203
	movzbl	20(%eax), %eax
	andl	$-8, %ecx
	andl	$3, %eax
	orl	%eax, %ecx
	movb	%cl, 5(%esi)
	jmp	L177
	.p2align 4,,10
L201:
	movl	(%eax), %eax
	movl	$0, 8(%eax)
	subl	$16, 8(%ebx)
	addl	$4, %esp
	.cfi_remember_state
	.cfi_def_cfa_offset 12
	movl	$1, %eax
	popl	%ebx
	.cfi_restore 3
	.cfi_def_cfa_offset 8
	popl	%esi
	.cfi_restore 6
	.cfi_def_cfa_offset 4
	ret
	.p2align 4,,10
L203:
	.cfi_restore_state
	call	_reallymarkobject
	jmp	L177
	.cfi_endproc
LFE397:
	.section	.text.unlikely,"x"
LCOLDE18:
	.text
LHOTE18:
	.section .rdata,"dr"
LC19:
	.ascii "\12\0"
	.section	.text.unlikely,"x"
LCOLDB20:
	.text
LHOTB20:
	.p2align 4,,15
	.def	_getF;	.scl	3;	.type	32;	.endef
_getF:
LFB434:
	.cfi_startproc
	pushl	%esi
	.cfi_def_cfa_offset 8
	.cfi_offset 6, -8
	pushl	%ebx
	.cfi_def_cfa_offset 12
	.cfi_offset 3, -12
	subl	$20, %esp
	.cfi_def_cfa_offset 32
	movl	36(%esp), %ebx
	movl	(%ebx), %eax
	testl	%eax, %eax
	je	L205
	movl	40(%esp), %eax
	movl	$0, (%ebx)
	movl	$1, (%eax)
	addl	$20, %esp
	.cfi_remember_state
	.cfi_def_cfa_offset 12
	movl	$LC19, %eax
	popl	%ebx
	.cfi_restore 3
	.cfi_def_cfa_offset 8
	popl	%esi
	.cfi_restore 6
	.cfi_def_cfa_offset 4
	ret
	.p2align 4,,10
L205:
	.cfi_restore_state
	movl	4(%ebx), %eax
	movl	%eax, (%esp)
	call	_feof
	testl	%eax, %eax
	jne	L208
	movl	4(%ebx), %eax
	leal	8(%ebx), %esi
	movl	$512, 8(%esp)
	movl	$1, 4(%esp)
	movl	%esi, (%esp)
	movl	%eax, 12(%esp)
	call	_fread
	movl	40(%esp), %edx
	testl	%eax, %eax
	movl	%eax, (%edx)
	je	L208
	addl	$20, %esp
	.cfi_remember_state
	.cfi_def_cfa_offset 12
	movl	%esi, %eax
	popl	%ebx
	.cfi_restore 3
	.cfi_def_cfa_offset 8
	popl	%esi
	.cfi_restore 6
	.cfi_def_cfa_offset 4
	ret
	.p2align 4,,10
L208:
	.cfi_restore_state
	addl	$20, %esp
	.cfi_def_cfa_offset 12
	xorl	%eax, %eax
	popl	%ebx
	.cfi_restore 3
	.cfi_def_cfa_offset 8
	popl	%esi
	.cfi_restore 6
	.cfi_def_cfa_offset 4
	ret
	.cfi_endproc
LFE434:
	.section	.text.unlikely,"x"
LCOLDE20:
	.text
LHOTE20:
	.section	.text.unlikely,"x"
LCOLDB21:
	.text
LHOTB21:
	.p2align 4,,15
	.def	_get_compTM.isra.35.constprop.168;	.scl	3;	.type	32;	.endef
_get_compTM.isra.35.constprop.168:
LFB671:
	.cfi_startproc
	testl	%edx, %edx
	je	L231
	testb	$16, 6(%edx)
	je	L232
L231:
	xorl	%eax, %eax
	ret
	.p2align 4,,10
L232:
	pushl	%ebp
	.cfi_def_cfa_offset 8
	.cfi_offset 5, -8
	pushl	%edi
	.cfi_def_cfa_offset 12
	.cfi_offset 7, -12
	movl	%eax, %ebp
	pushl	%esi
	.cfi_def_cfa_offset 16
	.cfi_offset 6, -16
	pushl	%ebx
	.cfi_def_cfa_offset 20
	.cfi_offset 3, -20
	movl	%ecx, %edi
	movl	%edx, %esi
	movl	$4, %edx
	subl	$4, %esp
	.cfi_def_cfa_offset 24
	movl	(%eax), %eax
	movl	204(%eax), %ecx
	movl	%esi, %eax
	call	_luaT_gettm
	testl	%eax, %eax
	movl	%eax, %ebx
	je	L216
	cmpl	%edi, %esi
	je	L217
	testl	%edi, %edi
	je	L216
	testb	$16, 6(%edi)
	je	L233
L216:
	addl	$4, %esp
	.cfi_remember_state
	.cfi_def_cfa_offset 20
	xorl	%eax, %eax
	popl	%ebx
	.cfi_restore 3
	.cfi_def_cfa_offset 16
	popl	%esi
	.cfi_restore 6
	.cfi_def_cfa_offset 12
	popl	%edi
	.cfi_restore 7
	.cfi_def_cfa_offset 8
	popl	%ebp
	.cfi_restore 5
	.cfi_def_cfa_offset 4
	ret
	.p2align 4,,10
L233:
	.cfi_restore_state
	movl	0(%ebp), %eax
	movl	$4, %edx
	movl	204(%eax), %ecx
	movl	%edi, %eax
	call	_luaT_gettm
	testl	%eax, %eax
	movl	%eax, %edx
	je	L216
	movl	%ebx, %eax
	call	_luaO_rawequalObj
	testl	%eax, %eax
	je	L216
L217:
	addl	$4, %esp
	.cfi_def_cfa_offset 20
	movl	%ebx, %eax
	popl	%ebx
	.cfi_restore 3
	.cfi_def_cfa_offset 16
	popl	%esi
	.cfi_restore 6
	.cfi_def_cfa_offset 12
	popl	%edi
	.cfi_restore 7
	.cfi_def_cfa_offset 8
	popl	%ebp
	.cfi_restore 5
	.cfi_def_cfa_offset 4
	ret
	.cfi_endproc
LFE671:
	.section	.text.unlikely,"x"
LCOLDE21:
	.text
LHOTE21:
	.section	.text.unlikely,"x"
LCOLDB22:
	.text
LHOTB22:
	.p2align 4,,15
	.def	_lua_setfenv.constprop.128;	.scl	3;	.type	32;	.endef
_lua_setfenv.constprop.128:
LFB711:
	.cfi_startproc
	pushl	%edi
	.cfi_def_cfa_offset 8
	.cfi_offset 7, -8
	pushl	%esi
	.cfi_def_cfa_offset 12
	.cfi_offset 6, -12
	pushl	%ebx
	.cfi_def_cfa_offset 16
	.cfi_offset 3, -16
	movl	8(%eax), %ecx
	movl	%eax, %ebx
	movl	-24(%ecx), %eax
	cmpl	$7, %eax
	je	L236
	cmpl	$8, %eax
	je	L237
	cmpl	$6, %eax
	je	L236
	movl	%ecx, %eax
	xorl	%esi, %esi
	subl	$16, %eax
	movl	%eax, 8(%ebx)
	movl	%esi, %eax
	popl	%ebx
	.cfi_remember_state
	.cfi_restore 3
	.cfi_def_cfa_offset 12
	popl	%esi
	.cfi_restore 6
	.cfi_def_cfa_offset 8
	popl	%edi
	.cfi_restore 7
	.cfi_def_cfa_offset 4
	ret
	.p2align 4,,10
L236:
	.cfi_restore_state
	movl	-32(%ecx), %eax
	movl	-16(%ecx), %edx
	movl	%edx, 12(%eax)
L239:
	movl	8(%ebx), %eax
	movl	-16(%eax), %edx
	testb	$3, 5(%edx)
	je	L248
	movl	-32(%ecx), %edi
	movl	$1, %esi
	movzbl	5(%edi), %ecx
	testb	$4, %cl
	je	L235
	movl	16(%ebx), %eax
	cmpb	$1, 21(%eax)
	je	L249
	movzbl	20(%eax), %eax
	andl	$-8, %ecx
	andl	$3, %eax
	orl	%eax, %ecx
	movb	%cl, 5(%edi)
	movl	8(%ebx), %eax
L235:
	subl	$16, %eax
	movl	%eax, 8(%ebx)
	movl	%esi, %eax
	popl	%ebx
	.cfi_remember_state
	.cfi_restore 3
	.cfi_def_cfa_offset 12
	popl	%esi
	.cfi_restore 6
	.cfi_def_cfa_offset 8
	popl	%edi
	.cfi_restore 7
	.cfi_def_cfa_offset 4
	ret
	.p2align 4,,10
L248:
	.cfi_restore_state
	movl	$1, %esi
	subl	$16, %eax
	movl	%eax, 8(%ebx)
	movl	%esi, %eax
	popl	%ebx
	.cfi_remember_state
	.cfi_restore 3
	.cfi_def_cfa_offset 12
	popl	%esi
	.cfi_restore 6
	.cfi_def_cfa_offset 8
	popl	%edi
	.cfi_restore 7
	.cfi_def_cfa_offset 4
	ret
	.p2align 4,,10
L237:
	.cfi_restore_state
	movl	-32(%ecx), %eax
	movl	-16(%ecx), %edx
	movl	$5, 80(%eax)
	movl	%edx, 72(%eax)
	jmp	L239
	.p2align 4,,10
L249:
	call	_reallymarkobject
	movl	8(%ebx), %eax
	jmp	L235
	.cfi_endproc
LFE711:
	.section	.text.unlikely,"x"
LCOLDE22:
	.text
LHOTE22:
	.section	.text.unlikely,"x"
LCOLDB23:
	.text
LHOTB23:
	.p2align 4,,15
	.def	_lua_getmetatable.constprop.151;	.scl	3;	.type	32;	.endef
_lua_getmetatable.constprop.151:
LFB688:
	.cfi_startproc
	pushl	%ebx
	.cfi_def_cfa_offset 8
	.cfi_offset 3, -8
	movl	12(%eax), %ecx
	movl	8(%eax), %edx
	cmpl	%edx, %ecx
	jnb	L256
	movl	8(%ecx), %ebx
	cmpl	$5, %ebx
	jne	L259
L253:
	movl	(%ecx), %ecx
	movl	8(%ecx), %ecx
	testl	%ecx, %ecx
	je	L257
L260:
	movl	%ecx, (%edx)
	movl	$5, 8(%edx)
	addl	$16, 8(%eax)
	movl	$1, %eax
	popl	%ebx
	.cfi_remember_state
	.cfi_restore 3
	.cfi_def_cfa_offset 4
	ret
	.p2align 4,,10
L256:
	.cfi_restore_state
	xorl	%ebx, %ebx
L251:
	movl	16(%eax), %ecx
	movl	152(%ecx,%ebx,4), %ecx
	testl	%ecx, %ecx
	jne	L260
L257:
	xorl	%eax, %eax
	popl	%ebx
	.cfi_remember_state
	.cfi_restore 3
	.cfi_def_cfa_offset 4
	ret
	.p2align 4,,10
L259:
	.cfi_restore_state
	cmpl	$7, %ebx
	je	L253
	jmp	L251
	.cfi_endproc
LFE688:
	.section	.text.unlikely,"x"
LCOLDE23:
	.text
LHOTE23:
	.section	.text.unlikely,"x"
LCOLDB24:
	.text
LHOTB24:
	.p2align 4,,15
	.def	_freeexp.isra.26.part.27;	.scl	3;	.type	32;	.endef
_freeexp.isra.26.part.27:
LFB591:
	.cfi_startproc
	movl	(%edx), %edx
	testb	$1, %dh
	je	L263
L261:
	rep ret
	.p2align 4,,10
L263:
	movzbl	50(%eax), %ecx
	cmpl	%ecx, %edx
	jl	L261
	subl	$1, 36(%eax)
	ret
	.cfi_endproc
LFE591:
	.section	.text.unlikely,"x"
LCOLDE24:
	.text
LHOTE24:
	.section	.text.unlikely,"x"
LCOLDB25:
	.text
LHOTB25:
	.p2align 4,,15
	.def	_luaH_getnum.part.8;	.scl	3;	.type	32;	.endef
_luaH_getnum.part.8:
LFB572:
	.cfi_startproc
	pushl	%ebx
	.cfi_def_cfa_offset 8
	.cfi_offset 3, -8
	movl	%eax, %ebx
	subl	$8, %esp
	.cfi_def_cfa_offset 16
	movl	%edx, (%esp)
	fildl	(%esp)
	fstl	(%esp)
	fldz
	fxch	%st(1)
	fucomip	%st(1), %st
	fstp	%st(0)
	jp	L265
	jne	L265
	movl	16(%eax), %eax
	jmp	L271
	.p2align 4,,10
L268:
	movl	28(%eax), %eax
	testl	%eax, %eax
	je	L276
L271:
	cmpl	$3, 24(%eax)
	jne	L268
	fldl	16(%eax)
	fldl	(%esp)
	fucomip	%st(1), %st
	fstp	%st(0)
	jp	L268
	jne	L268
	addl	$8, %esp
	.cfi_remember_state
	.cfi_def_cfa_offset 8
	popl	%ebx
	.cfi_restore 3
	.cfi_def_cfa_offset 4
	ret
	.p2align 4,,10
L276:
	.cfi_restore_state
	addl	$8, %esp
	.cfi_remember_state
	.cfi_def_cfa_offset 8
	movl	$_luaO_nilobject_, %eax
	popl	%ebx
	.cfi_restore 3
	.cfi_def_cfa_offset 4
	ret
	.p2align 4,,10
L265:
	.cfi_restore_state
	movl	4(%esp), %edx
	movzbl	7(%ebx), %ecx
	movl	(%esp), %eax
	addl	%edx, %eax
	movl	$1, %edx
	sall	%cl, %edx
	leal	-1(%edx), %ecx
	xorl	%edx, %edx
	orl	$1, %ecx
	divl	%ecx
	movl	16(%ebx), %eax
	sall	$5, %edx
	addl	%edx, %eax
	jmp	L271
	.cfi_endproc
LFE572:
	.section	.text.unlikely,"x"
LCOLDE25:
	.text
LHOTE25:
	.section	.text.unlikely,"x"
LCOLDB26:
	.text
LHOTB26:
	.p2align 4,,15
	.def	_luaH_getn;	.scl	3;	.type	32;	.endef
_luaH_getn:
LFB134:
	.cfi_startproc
	pushl	%ebp
	.cfi_def_cfa_offset 8
	.cfi_offset 5, -8
	pushl	%edi
	.cfi_def_cfa_offset 12
	.cfi_offset 7, -12
	pushl	%esi
	.cfi_def_cfa_offset 16
	.cfi_offset 6, -16
	pushl	%ebx
	.cfi_def_cfa_offset 20
	.cfi_offset 3, -20
	subl	$4, %esp
	.cfi_def_cfa_offset 24
	movl	28(%eax), %esi
	testl	%esi, %esi
	movl	%esi, %edx
	je	L278
	movl	12(%eax), %ebx
	leal	268435455(%esi), %ecx
	sall	$4, %ecx
	movl	8(%ebx,%ecx), %ebp
	testl	%ebp, %ebp
	je	L279
L278:
	cmpl	$_dummynode_, 16(%eax)
	je	L283
	movl	%eax, %edi
	leal	1(%esi), %ebx
	jmp	L284
	.p2align 4,,10
L305:
	leal	268435455(%ebx), %eax
	sall	$4, %eax
	addl	12(%edi), %eax
L291:
	movl	8(%eax), %edx
	testl	%edx, %edx
	je	L293
	leal	(%ebx,%ebx), %eax
	cmpl	$2147483645, %eax
	ja	L304
	movl	28(%edi), %edx
	movl	%ebx, %esi
	movl	%eax, %ebx
L284:
	leal	-1(%ebx), %eax
	cmpl	%edx, %eax
	jb	L305
	movl	%ebx, %edx
	movl	%edi, %eax
	call	_luaH_getnum.part.8
	jmp	L291
	.p2align 4,,10
L307:
	leal	268435455(%ebp), %eax
	sall	$4, %eax
	addl	12(%edi), %eax
L295:
	movl	8(%eax), %eax
	testl	%eax, %eax
	cmove	%ebp, %ebx
	cmovne	%ebp, %esi
L293:
	movl	%ebx, %eax
	subl	%esi, %eax
	cmpl	$1, %eax
	jbe	L306
	leal	(%ebx,%esi), %ebp
	shrl	%ebp
	leal	-1(%ebp), %eax
	cmpl	28(%edi), %eax
	jb	L307
	movl	%ebp, %edx
	movl	%edi, %eax
	call	_luaH_getnum.part.8
	jmp	L295
	.p2align 4,,10
L279:
	xorl	%eax, %eax
	jmp	L280
	.p2align 4,,10
L282:
	leal	(%esi,%eax), %edx
	shrl	%edx
	leal	268435455(%edx), %ecx
	sall	$4, %ecx
	movl	8(%ebx,%ecx), %edi
	testl	%edi, %edi
	cmovne	%edx, %eax
	cmove	%edx, %esi
L280:
	movl	%esi, %edx
	subl	%eax, %edx
	cmpl	$1, %edx
	ja	L282
	movl	%eax, %edx
L283:
	addl	$4, %esp
	.cfi_remember_state
	.cfi_def_cfa_offset 20
	movl	%edx, %eax
	popl	%ebx
	.cfi_restore 3
	.cfi_def_cfa_offset 16
	popl	%esi
	.cfi_restore 6
	.cfi_def_cfa_offset 12
	popl	%edi
	.cfi_restore 7
	.cfi_def_cfa_offset 8
	popl	%ebp
	.cfi_restore 5
	.cfi_def_cfa_offset 4
	ret
	.p2align 4,,10
L306:
	.cfi_restore_state
	addl	$4, %esp
	.cfi_remember_state
	.cfi_def_cfa_offset 20
	movl	%esi, %edx
	popl	%ebx
	.cfi_restore 3
	.cfi_def_cfa_offset 16
	movl	%edx, %eax
	popl	%esi
	.cfi_restore 6
	.cfi_def_cfa_offset 12
	popl	%edi
	.cfi_restore 7
	.cfi_def_cfa_offset 8
	popl	%ebp
	.cfi_restore 5
	.cfi_def_cfa_offset 4
	ret
	.p2align 4,,10
L304:
	.cfi_restore_state
	xorl	%esi, %esi
	movl	$1, %ebx
	jmp	L286
	.p2align 4,,10
L309:
	movl	12(%edi), %eax
	addl	%esi, %eax
	addl	$16, %esi
	movl	8(%eax), %ecx
	testl	%ecx, %ecx
	je	L308
L289:
	addl	$1, %ebx
L286:
	leal	-1(%ebx), %ebp
	cmpl	28(%edi), %ebp
	jb	L309
	movl	%ebx, %edx
	movl	%edi, %eax
	addl	$16, %esi
	call	_luaH_getnum.part.8
	movl	8(%eax), %ecx
	testl	%ecx, %ecx
	jne	L289
L308:
	addl	$4, %esp
	.cfi_def_cfa_offset 20
	movl	%ebp, %edx
	popl	%ebx
	.cfi_restore 3
	.cfi_def_cfa_offset 16
	movl	%edx, %eax
	popl	%esi
	.cfi_restore 6
	.cfi_def_cfa_offset 12
	popl	%edi
	.cfi_restore 7
	.cfi_def_cfa_offset 8
	popl	%ebp
	.cfi_restore 5
	.cfi_def_cfa_offset 4
	ret
	.cfi_endproc
LFE134:
	.section	.text.unlikely,"x"
LCOLDE26:
	.text
LHOTE26:
	.section	.text.unlikely,"x"
LCOLDB27:
	.text
LHOTB27:
	.p2align 4,,15
	.def	_lua_rawgeti;	.scl	3;	.type	32;	.endef
_lua_rawgeti:
LFB389:
	.cfi_startproc
	pushl	%esi
	.cfi_def_cfa_offset 8
	.cfi_offset 6, -8
	pushl	%ebx
	.cfi_def_cfa_offset 12
	.cfi_offset 3, -12
	movl	%eax, %esi
	movl	%ecx, %ebx
	subl	$4, %esp
	.cfi_def_cfa_offset 16
	call	_index2adr
	movl	(%eax), %eax
	leal	-1(%ebx), %edx
	cmpl	28(%eax), %edx
	jnb	L311
	addl	$268435455, %ebx
	sall	$4, %ebx
	addl	12(%eax), %ebx
	movl	%ebx, %eax
L312:
	movl	8(%esi), %edx
	movl	4(%eax), %ebx
	movl	(%eax), %ecx
	movl	%ebx, 4(%edx)
	movl	8(%eax), %eax
	addl	$16, %edx
	movl	%ecx, -16(%edx)
	movl	%eax, -8(%edx)
	movl	%edx, 8(%esi)
	addl	$4, %esp
	.cfi_remember_state
	.cfi_def_cfa_offset 12
	popl	%ebx
	.cfi_restore 3
	.cfi_def_cfa_offset 8
	popl	%esi
	.cfi_restore 6
	.cfi_def_cfa_offset 4
	ret
	.p2align 4,,10
L311:
	.cfi_restore_state
	movl	%ebx, %edx
	call	_luaH_getnum.part.8
	jmp	L312
	.cfi_endproc
LFE389:
	.section	.text.unlikely,"x"
LCOLDE27:
	.text
LHOTE27:
	.section	.text.unlikely,"x"
LCOLDB28:
	.text
LHOTB28:
	.p2align 4,,15
	.def	_lua_rawgeti.constprop.131;	.scl	3;	.type	32;	.endef
_lua_rawgeti.constprop.131:
LFB708:
	.cfi_startproc
	pushl	%edi
	.cfi_def_cfa_offset 8
	.cfi_offset 7, -8
	pushl	%esi
	.cfi_def_cfa_offset 12
	.cfi_offset 6, -12
	pushl	%ebx
	.cfi_def_cfa_offset 16
	.cfi_offset 3, -16
	movl	12(%eax), %esi
	movl	%eax, %ebx
	movl	8(%eax), %ecx
	xorl	%eax, %eax
	cmpl	%ecx, %esi
	jnb	L315
	movl	(%esi), %eax
L315:
	leal	-1(%edx), %esi
	cmpl	28(%eax), %esi
	jnb	L316
	addl	$268435455, %edx
	sall	$4, %edx
	addl	12(%eax), %edx
	movl	%edx, %eax
L317:
	movl	4(%eax), %edi
	movl	(%eax), %esi
	addl	$16, %ecx
	movl	%edi, -12(%ecx)
	movl	8(%eax), %eax
	movl	%esi, -16(%ecx)
	movl	%eax, -8(%ecx)
	movl	%ecx, 8(%ebx)
	popl	%ebx
	.cfi_remember_state
	.cfi_restore 3
	.cfi_def_cfa_offset 12
	popl	%esi
	.cfi_restore 6
	.cfi_def_cfa_offset 8
	popl	%edi
	.cfi_restore 7
	.cfi_def_cfa_offset 4
	ret
	.p2align 4,,10
L316:
	.cfi_restore_state
	call	_luaH_getnum.part.8
	movl	8(%ebx), %ecx
	jmp	L317
	.cfi_endproc
LFE708:
	.section	.text.unlikely,"x"
LCOLDE28:
	.text
LHOTE28:
	.section	.text.unlikely,"x"
LCOLDB29:
	.text
LHOTB29:
	.p2align 4,,15
	.def	_luaV_tonumber.part.47;	.scl	3;	.type	32;	.endef
_luaV_tonumber.part.47:
LFB611:
	.cfi_startproc
	pushl	%ebp
	.cfi_def_cfa_offset 8
	.cfi_offset 5, -8
	pushl	%edi
	.cfi_def_cfa_offset 12
	.cfi_offset 7, -12
	movl	%edx, %edi
	pushl	%esi
	.cfi_def_cfa_offset 16
	.cfi_offset 6, -16
	pushl	%ebx
	.cfi_def_cfa_offset 20
	.cfi_offset 3, -20
	subl	$76, %esp
	.cfi_def_cfa_offset 96
	movl	(%eax), %ebp
	leal	60(%esp), %eax
	addl	$16, %ebp
	movl	%eax, 4(%esp)
	movl	%eax, 36(%esp)
	movl	%ebp, (%esp)
	call	___strtod
	movl	60(%esp), %ebx
	fstpl	24(%esp)
	cmpl	%ebx, %ebp
	je	L322
	movzbl	(%ebx), %esi
	movl	36(%esp), %eax
	movl	%esi, %edx
	andl	$-33, %edx
	cmpb	$88, %dl
	je	L333
L323:
	movl	%esi, %eax
	testb	%al, %al
	je	L324
	addl	$1, %ebx
	movl	__imp__isspace, %ebp
	jmp	L325
	.p2align 4,,10
L326:
	movl	%ebx, 60(%esp)
	addl	$1, %ebx
	movzbl	-1(%ebx), %esi
L325:
	movl	%esi, %eax
	movzbl	%al, %eax
	movl	%eax, (%esp)
	call	*%ebp
	testl	%eax, %eax
	jne	L326
	movl	%esi, %eax
	testb	%al, %al
	jne	L322
L324:
	fldl	24(%esp)
	movl	$3, 8(%edi)
	movl	%edi, %eax
	fstpl	(%edi)
	addl	$76, %esp
	.cfi_remember_state
	.cfi_def_cfa_offset 20
	popl	%ebx
	.cfi_restore 3
	.cfi_def_cfa_offset 16
	popl	%esi
	.cfi_restore 6
	.cfi_def_cfa_offset 12
	popl	%edi
	.cfi_restore 7
	.cfi_def_cfa_offset 8
	popl	%ebp
	.cfi_restore 5
	.cfi_def_cfa_offset 4
	ret
	.p2align 4,,10
L322:
	.cfi_restore_state
	addl	$76, %esp
	.cfi_remember_state
	.cfi_def_cfa_offset 20
	xorl	%eax, %eax
	popl	%ebx
	.cfi_restore 3
	.cfi_def_cfa_offset 16
	popl	%esi
	.cfi_restore 6
	.cfi_def_cfa_offset 12
	popl	%edi
	.cfi_restore 7
	.cfi_def_cfa_offset 8
	popl	%ebp
	.cfi_restore 5
	.cfi_def_cfa_offset 4
	ret
	.p2align 4,,10
L333:
	.cfi_restore_state
	movl	$16, 8(%esp)
	movl	%eax, 4(%esp)
	movl	%ebp, (%esp)
	call	_strtoul
	movl	$0, 28(%esp)
	movl	%eax, 24(%esp)
	movl	60(%esp), %ebx
	fildq	24(%esp)
	fstpl	24(%esp)
	movzbl	(%ebx), %esi
	jmp	L323
	.cfi_endproc
LFE611:
	.section	.text.unlikely,"x"
LCOLDE29:
	.text
LHOTE29:
	.section	.text.unlikely,"x"
LCOLDB30:
	.text
LHOTB30:
	.p2align 4,,15
	.def	_lua_tonumber;	.scl	3;	.type	32;	.endef
_lua_tonumber:
LFB369:
	.cfi_startproc
	subl	$28, %esp
	.cfi_def_cfa_offset 32
	call	_index2adr
	movl	8(%eax), %edx
	cmpl	$3, %edx
	je	L335
	cmpl	$4, %edx
	je	L336
L338:
	fldz
	addl	$28, %esp
	.cfi_remember_state
	.cfi_def_cfa_offset 4
	ret
	.p2align 4,,10
L336:
	.cfi_restore_state
	movl	%esp, %edx
	call	_luaV_tonumber.part.47
	testl	%eax, %eax
	je	L338
L335:
	fldl	(%eax)
	addl	$28, %esp
	.cfi_def_cfa_offset 4
	ret
	.cfi_endproc
LFE369:
	.section	.text.unlikely,"x"
LCOLDE30:
	.text
LHOTE30:
	.section	.text.unlikely,"x"
LCOLDB31:
	.text
LHOTB31:
	.p2align 4,,15
	.def	_lua_isnumber;	.scl	3;	.type	32;	.endef
_lua_isnumber:
LFB365:
	.cfi_startproc
	subl	$28, %esp
	.cfi_def_cfa_offset 32
	call	_index2adr
	movl	8(%eax), %edx
	cmpl	$3, %edx
	je	L348
	movl	%eax, %ecx
	xorl	%eax, %eax
	cmpl	$4, %edx
	je	L351
L347:
	addl	$28, %esp
	.cfi_remember_state
	.cfi_def_cfa_offset 4
	ret
	.p2align 4,,10
L351:
	.cfi_restore_state
	movl	%esp, %edx
	movl	%ecx, %eax
	call	_luaV_tonumber.part.47
	testl	%eax, %eax
	setne	%al
	movzbl	%al, %eax
	jmp	L347
	.p2align 4,,10
L348:
	movl	$1, %eax
	addl	$28, %esp
	.cfi_def_cfa_offset 4
	ret
	.cfi_endproc
LFE365:
	.section	.text.unlikely,"x"
LCOLDE31:
	.text
LHOTE31:
	.section	.text.unlikely,"x"
LCOLDB32:
	.text
LHOTB32:
	.p2align 4,,15
	.def	_luaH_get;	.scl	3;	.type	32;	.endef
_luaH_get:
LFB129:
	.cfi_startproc
	pushl	%esi
	.cfi_def_cfa_offset 8
	.cfi_offset 6, -8
	pushl	%ebx
	.cfi_def_cfa_offset 12
	.cfi_offset 3, -12
	subl	$20, %esp
	.cfi_def_cfa_offset 32
	movl	8(%edx), %esi
	cmpl	$3, %esi
	je	L354
	cmpl	$4, %esi
	je	L355
	testl	%esi, %esi
	movl	$_luaO_nilobject_, %ecx
	je	L356
L353:
	movl	%edx, %ebx
	xorl	%esi, %esi
	call	_mainposition
	movl	8(%ebx), %ecx
	jmp	L369
	.p2align 4,,10
L361:
	movl	28(%eax), %eax
	testl	%eax, %eax
	je	L370
L369:
	cmpl	24(%eax), %ecx
	jne	L361
	cmpl	$1, %ecx
	je	L362
	jle	L384
	cmpl	$2, %ecx
	je	L362
	cmpl	$3, %ecx
	jne	L362
	fldl	16(%eax)
	xorl	%edx, %edx
	fldl	(%ebx)
	fucomip	%st(1), %st
	fstp	%st(0)
	setnp	%dl
	cmovne	%esi, %edx
L368:
	testl	%edx, %edx
	je	L361
	.p2align 4,,10
L365:
	movl	%eax, %ecx
L356:
	addl	$20, %esp
	.cfi_remember_state
	.cfi_def_cfa_offset 12
	movl	%ecx, %eax
	popl	%ebx
	.cfi_restore 3
	.cfi_def_cfa_offset 8
	popl	%esi
	.cfi_restore 6
	.cfi_def_cfa_offset 4
	ret
	.p2align 4,,10
L384:
	.cfi_restore_state
	testl	%ecx, %ecx
	je	L365
	.p2align 4,,10
L362:
	movl	(%ebx), %edx
	cmpl	%edx, 16(%eax)
	sete	%dl
	movzbl	%dl, %edx
	jmp	L368
	.p2align 4,,10
L370:
	addl	$20, %esp
	.cfi_remember_state
	.cfi_def_cfa_offset 12
	movl	$_luaO_nilobject_, %ecx
	movl	%ecx, %eax
	popl	%ebx
	.cfi_restore 3
	.cfi_def_cfa_offset 8
	popl	%esi
	.cfi_restore 6
	.cfi_def_cfa_offset 4
	ret
	.p2align 4,,10
L355:
	.cfi_restore_state
	movzbl	7(%eax), %ecx
	movl	(%edx), %ebx
	movl	$1, %edx
	sall	%cl, %edx
	subl	$1, %edx
	andl	8(%ebx), %edx
	sall	$5, %edx
	addl	16(%eax), %edx
	movl	%edx, %eax
	jmp	L358
	.p2align 4,,10
L357:
	movl	28(%eax), %eax
	testl	%eax, %eax
	je	L370
L358:
	cmpl	$4, 24(%eax)
	jne	L357
	cmpl	16(%eax), %ebx
	jne	L357
	movl	%eax, %ecx
	jmp	L356
	.p2align 4,,10
L354:
	fldl	(%edx)
	fnstcw	14(%esp)
	movzwl	14(%esp), %ecx
	movb	$12, %ch
	movw	%cx, 12(%esp)
	fldcw	12(%esp)
	fistl	4(%esp)
	fldcw	14(%esp)
	fildl	4(%esp)
	fxch	%st(1)
	fucomip	%st(1), %st
	fstp	%st(0)
	jp	L353
	jne	L353
	movl	4(%esp), %esi
	leal	-1(%esi), %edx
	cmpl	28(%eax), %edx
	jnb	L360
	movl	%esi, %ecx
	addl	$268435455, %ecx
	sall	$4, %ecx
	addl	12(%eax), %ecx
	jmp	L356
L360:
	addl	$20, %esp
	.cfi_def_cfa_offset 12
	movl	%esi, %edx
	popl	%ebx
	.cfi_restore 3
	.cfi_def_cfa_offset 8
	popl	%esi
	.cfi_restore 6
	.cfi_def_cfa_offset 4
	jmp	_luaH_getnum.part.8
	.cfi_endproc
LFE129:
	.section	.text.unlikely,"x"
LCOLDE32:
	.text
LHOTE32:
	.section	.text.unlikely,"x"
LCOLDB33:
	.text
LHOTB33:
	.p2align 4,,15
	.def	_matchbracketclass;	.scl	3;	.type	32;	.endef
_matchbracketclass:
LFB523:
	.cfi_startproc
	pushl	%ebp
	.cfi_def_cfa_offset 8
	.cfi_offset 5, -8
	pushl	%edi
	.cfi_def_cfa_offset 12
	.cfi_offset 7, -12
	movl	%eax, %edi
	pushl	%esi
	.cfi_def_cfa_offset 16
	.cfi_offset 6, -16
	pushl	%ebx
	.cfi_def_cfa_offset 20
	.cfi_offset 3, -20
	movl	%ecx, %esi
	subl	$44, %esp
	.cfi_def_cfa_offset 64
	cmpb	$94, 1(%edx)
	movl	$1, 20(%esp)
	je	L414
L386:
	movl	__imp__islower, %eax
	leal	1(%edx), %ebp
	cmpl	%esi, %ebp
	movl	%eax, 24(%esp)
	jnb	L415
	.p2align 4,,10
L406:
	movzbl	1(%edx), %eax
	cmpb	$37, %al
	je	L416
	cmpb	$45, 2(%edx)
	je	L417
L405:
	cmpl	%eax, %edi
	je	L412
L404:
	movl	%ebp, %edx
L418:
	leal	1(%edx), %ebp
	cmpl	%esi, %ebp
	jb	L406
L415:
	movl	20(%esp), %eax
	addl	$44, %esp
	.cfi_remember_state
	.cfi_def_cfa_offset 20
	popl	%ebx
	.cfi_restore 3
	.cfi_def_cfa_offset 16
	popl	%esi
	.cfi_restore 6
	.cfi_def_cfa_offset 12
	xorl	$1, %eax
	popl	%edi
	.cfi_restore 7
	.cfi_def_cfa_offset 8
	popl	%ebp
	.cfi_restore 5
	.cfi_def_cfa_offset 4
	ret
	.p2align 4,,10
L416:
	.cfi_restore_state
	movzbl	2(%edx), %ebx
	leal	2(%edx), %ebp
	movl	%ebx, (%esp)
	call	*__imp__tolower
	subl	$97, %eax
	cmpl	$25, %eax
	ja	L389
	jmp	*L391(,%eax,4)
	.section .rdata,"dr"
	.align 4
L391:
	.long	L390
	.long	L389
	.long	L392
	.long	L393
	.long	L389
	.long	L389
	.long	L389
	.long	L389
	.long	L389
	.long	L389
	.long	L389
	.long	L394
	.long	L389
	.long	L389
	.long	L389
	.long	L395
	.long	L389
	.long	L389
	.long	L396
	.long	L389
	.long	L397
	.long	L389
	.long	L398
	.long	L399
	.long	L389
	.long	L400
	.text
	.p2align 4,,10
L400:
	xorl	%eax, %eax
	movl	__imp__islower, %edx
	testl	%edi, %edi
	sete	%al
	movl	%eax, 16(%esp)
	.p2align 4,,10
L401:
	movl	%ebx, (%esp)
	call	*%edx
	testl	%eax, %eax
	movl	16(%esp), %ebx
	jne	L402
	testl	%ebx, %ebx
	sete	%bl
	movzbl	%bl, %ebx
L402:
	testl	%ebx, %ebx
	je	L404
L412:
	movl	20(%esp), %eax
	addl	$44, %esp
	.cfi_remember_state
	.cfi_def_cfa_offset 20
	popl	%ebx
	.cfi_restore 3
	.cfi_def_cfa_offset 16
	popl	%esi
	.cfi_restore 6
	.cfi_def_cfa_offset 12
	popl	%edi
	.cfi_restore 7
	.cfi_def_cfa_offset 8
	popl	%ebp
	.cfi_restore 5
	.cfi_def_cfa_offset 4
	ret
	.p2align 4,,10
L399:
	.cfi_restore_state
	movl	%edi, (%esp)
	call	*__imp__isxdigit
	movl	24(%esp), %edx
	movl	%eax, 16(%esp)
	jmp	L401
	.p2align 4,,10
L398:
	movl	%edi, (%esp)
	call	*__imp__isalnum
	movl	__imp__islower, %edx
	movl	%eax, 16(%esp)
	jmp	L401
	.p2align 4,,10
L397:
	movl	%edi, (%esp)
	call	*__imp__isupper
	movl	__imp__islower, %edx
	movl	%eax, 16(%esp)
	jmp	L401
	.p2align 4,,10
L396:
	movl	%edi, (%esp)
	call	*__imp__isspace
	movl	__imp__islower, %edx
	movl	%eax, 16(%esp)
	jmp	L401
	.p2align 4,,10
L395:
	movl	%edi, (%esp)
	call	*__imp__ispunct
	movl	__imp__islower, %edx
	movl	%eax, 16(%esp)
	jmp	L401
	.p2align 4,,10
L394:
	movl	__imp__islower, %edx
	movl	%edi, (%esp)
	movl	%edx, 28(%esp)
	call	*%edx
	movl	28(%esp), %edx
	movl	%eax, 16(%esp)
	jmp	L401
	.p2align 4,,10
L393:
	leal	-48(%edi), %eax
	movl	__imp__islower, %edx
	cmpl	$9, %eax
	setbe	%al
	movzbl	%al, %eax
	movl	%eax, 16(%esp)
	jmp	L401
	.p2align 4,,10
L392:
	movl	%edi, (%esp)
	call	*__imp__iscntrl
	movl	__imp__islower, %edx
	movl	%eax, 16(%esp)
	jmp	L401
	.p2align 4,,10
L390:
	movl	%edi, (%esp)
	call	*__imp__isalpha
	movl	__imp__islower, %edx
	movl	%eax, 16(%esp)
	jmp	L401
	.p2align 4,,10
L389:
	cmpl	%ebx, %edi
	sete	%bl
	movzbl	%bl, %ebx
	jmp	L402
	.p2align 4,,10
L417:
	leal	3(%edx), %ebx
	cmpl	%ebx, %esi
	jbe	L405
	cmpl	%edi, %eax
	jg	L410
	movzbl	3(%edx), %eax
	cmpl	%eax, %edi
	jle	L412
L410:
	movl	%ebx, %ebp
	movl	%ebp, %edx
	jmp	L418
	.p2align 4,,10
L414:
	addl	$1, %edx
	movl	$0, 20(%esp)
	jmp	L386
	.cfi_endproc
LFE523:
	.section	.text.unlikely,"x"
LCOLDE33:
	.text
LHOTE33:
	.section .rdata,"dr"
LC34:
	.ascii "C stack overflow\0"
LC35:
	.ascii "get length of\0"
LC36:
	.ascii "attempt to %s a %s value\0"
	.align 4
LC37:
	.ascii "'for' initial value must be a number\0"
LC38:
	.ascii "'for' limit must be a number\0"
LC39:
	.ascii "'for' step must be a number\0"
	.section	.text.unlikely,"x"
LCOLDB40:
	.text
LHOTB40:
	.p2align 4,,15
	.def	_luaD_call;	.scl	3;	.type	32;	.endef
_luaD_call:
LFB101:
	.cfi_startproc
	pushl	%ebp
	.cfi_def_cfa_offset 8
	.cfi_offset 5, -8
	pushl	%edi
	.cfi_def_cfa_offset 12
	.cfi_offset 7, -12
	movl	%eax, %edi
	pushl	%esi
	.cfi_def_cfa_offset 16
	.cfi_offset 6, -16
	pushl	%ebx
	.cfi_def_cfa_offset 20
	.cfi_offset 3, -20
	movl	%edx, %ebx
	subl	$124, %esp
	.cfi_def_cfa_offset 144
	movl	%eax, 48(%esp)
	movzwl	52(%eax), %eax
	movw	%ax, 24(%esp)
	addl	$1, %eax
	cmpw	$199, %ax
	movw	%ax, 52(%edi)
	jbe	L420
	cmpw	$200, %ax
	je	L745
	cmpw	$224, %ax
	ja	L746
L420:
	movl	48(%esp), %eax
	movl	%ebx, %edx
	call	_luaD_precall
	testl	%eax, %eax
	je	L747
L558:
	movl	48(%esp), %eax
	subw	$1, 52(%eax)
	movl	16(%eax), %eax
	movl	64(%eax), %edi
	cmpl	%edi, 68(%eax)
	jb	L419
	movl	48(%esp), %eax
	call	_luaC_step
L419:
	addl	$124, %esp
	.cfi_remember_state
	.cfi_def_cfa_offset 20
	popl	%ebx
	.cfi_restore 3
	.cfi_def_cfa_offset 16
	popl	%esi
	.cfi_restore 6
	.cfi_def_cfa_offset 12
	popl	%edi
	.cfi_restore 7
	.cfi_def_cfa_offset 8
	popl	%ebp
	.cfi_restore 5
	.cfi_def_cfa_offset 4
	ret
	.p2align 4,,10
L747:
	.cfi_restore_state
	movl	48(%esp), %eax
	movl	$1, 76(%esp)
	movl	20(%eax), %esi
	movl	12(%eax), %edi
	leal	104(%eax), %ecx
	movl	24(%eax), %ebp
	addl	$16, %eax
	movl	%eax, 84(%esp)
	movl	%ecx, 80(%esp)
	movl	%edi, 40(%esp)
	movl	%esi, 36(%esp)
	movl	%esi, %eax
	movl	%ebp, 24(%esp)
L423:
	movl	4(%eax), %eax
	movl	(%eax), %eax
	movl	%eax, 64(%esp)
	movl	16(%eax), %eax
	movl	8(%eax), %eax
	movl	%eax, 52(%esp)
	jmp	L424
L806:
	fstp	%st(0)
	.p2align 4,,10
L424:
	movl	24(%esp), %eax
	movl	(%eax), %ebp
	leal	4(%eax), %edi
	movl	40(%esp), %eax
	movl	%edi, 36(%esp)
	movl	%ebp, %ebx
	shrl	$6, %ebx
	movzbl	%bl, %ebx
	movl	%ebx, %esi
	sall	$4, %esi
	addl	%esi, %eax
	movl	%eax, 44(%esp)
	movl	%ebp, %eax
	andl	$63, %eax
	cmpl	$37, %eax
	ja	L623
	jmp	*L427(,%eax,4)
	.section .rdata,"dr"
	.align 4
L427:
	.long	L426
	.long	L428
	.long	L429
	.long	L430
	.long	L431
	.long	L432
	.long	L433
	.long	L434
	.long	L435
	.long	L436
	.long	L437
	.long	L438
	.long	L439
	.long	L440
	.long	L441
	.long	L442
	.long	L443
	.long	L444
	.long	L445
	.long	L446
	.long	L447
	.long	L448
	.long	L738
	.long	L450
	.long	L451
	.long	L452
	.long	L453
	.long	L454
	.long	L455
	.long	L456
	.long	L457
	.long	L458
	.long	L459
	.long	L460
	.long	L461
	.long	L462
	.long	L463
	.long	L464
	.text
	.p2align 4,,10
L459:
	movl	44(%esp), %eax
	movl	48(%esp), %ecx
	movl	36(%esp), %edi
	leal	32(%eax), %ebx
	movl	8(%eax), %eax
	movl	%edi, 24(%ecx)
	cmpl	$3, %eax
	je	L580
	cmpl	$4, %eax
	je	L581
L583:
	movl	48(%esp), %eax
	movl	$LC37, 4(%esp)
	movl	%eax, (%esp)
	call	_luaG_runerror
L582:
	movl	44(%esp), %eax
	fldl	(%eax)
	fsubl	(%ebx)
	movl	$3, 8(%eax)
	fstpl	(%eax)
L738:
	movl	36(%esp), %eax
	shrl	$14, %ebp
	leal	-524284(%eax,%ebp,4), %eax
	movl	%eax, 24(%esp)
	jmp	L424
	.p2align 4,,10
L448:
	movl	%ebp, %ecx
	movl	48(%esp), %eax
	movl	36(%esp), %edi
	shrl	$14, %ecx
	movl	%ebp, %ebx
	andl	$511, %ecx
	shrl	$23, %ebx
	movl	%ecx, %edx
	movl	%edi, 24(%eax)
	movl	%eax, %edi
	subl	%ebx, %edx
	addl	$1, %edx
	call	_luaV_concat
	movl	16(%edi), %eax
	movl	64(%eax), %ecx
	cmpl	%ecx, 68(%eax)
	jnb	L748
L514:
	movl	48(%esp), %eax
	sall	$4, %ebx
	movl	12(%eax), %eax
	addl	%eax, %ebx
	addl	%eax, %esi
	movl	%eax, 40(%esp)
	movl	4(%ebx), %edx
	movl	(%ebx), %eax
	movl	%edx, 4(%esi)
	movl	%eax, (%esi)
	movl	8(%ebx), %eax
	movl	%eax, 8(%esi)
	movl	36(%esp), %eax
	movl	%eax, 24(%esp)
	jmp	L424
	.p2align 4,,10
L447:
	movl	40(%esp), %eax
	shrl	$23, %ebp
	sall	$4, %ebp
	leal	(%eax,%ebp), %ebx
	movl	8(%ebx), %eax
	cmpl	$4, %eax
	je	L511
	cmpl	$5, %eax
	jne	L724
	movl	(%ebx), %eax
	call	_luaH_getn
	movl	%eax, 24(%esp)
	fildl	24(%esp)
	jmp	L736
	.p2align 4,,10
L446:
	movl	40(%esp), %eax
	shrl	$23, %ebp
	movl	$1, %edx
	sall	$4, %ebp
	addl	%ebp, %eax
	movl	8(%eax), %ecx
	testl	%ecx, %ecx
	je	L509
	xorl	%edx, %edx
	cmpl	$1, %ecx
	jne	L509
	movl	(%eax), %eax
	xorl	%edx, %edx
	testl	%eax, %eax
	sete	%dl
	.p2align 4,,10
L509:
	movl	44(%esp), %eax
	movl	%edx, (%eax)
	movl	$1, 8(%eax)
	movl	36(%esp), %eax
	movl	%eax, 24(%esp)
	jmp	L424
	.p2align 4,,10
L445:
	movl	40(%esp), %eax
	shrl	$23, %ebp
	sall	$4, %ebp
	leal	(%eax,%ebp), %ecx
	cmpl	$3, 8(%ecx)
	je	L749
	movl	%edi, %esi
	movl	48(%esp), %edi
	movl	44(%esp), %edx
	movl	%esi, 24(%edi)
	movl	%edi, %eax
	movl	$11, 4(%esp)
	movl	%ecx, (%esp)
	call	_Arith
	movl	12(%edi), %eax
	movl	%esi, 24(%esp)
	movl	%eax, 40(%esp)
	jmp	L424
	.p2align 4,,10
L444:
	movl	%ebp, %ecx
	shrl	$23, %ecx
	testb	$1, %ch
	jne	L750
	movl	%ebp, %eax
	sall	$4, %ecx
	addl	40(%esp), %ecx
	shrl	$14, %eax
	testb	$1, %ah
	je	L505
L799:
	movzbl	%al, %ebp
	movl	52(%esp), %eax
	sall	$4, %ebp
	addl	%ebp, %eax
L506:
	cmpl	$3, 8(%ecx)
	jne	L507
	cmpl	$3, 8(%eax)
	je	L751
L507:
	movl	48(%esp), %edi
	movl	36(%esp), %esi
	movl	%esi, 24(%edi)
	movl	$10, 4(%esp)
	jmp	L737
	.p2align 4,,10
L443:
	movl	%ebp, %ecx
	shrl	$23, %ecx
	testb	$1, %ch
	jne	L752
	movl	%ebp, %eax
	sall	$4, %ecx
	addl	40(%esp), %ecx
	shrl	$14, %eax
	testb	$1, %ah
	je	L500
L798:
	movzbl	%al, %ebp
	movl	52(%esp), %eax
	sall	$4, %ebp
	addl	%ebp, %eax
L501:
	cmpl	$3, 8(%ecx)
	jne	L502
	cmpl	$3, 8(%eax)
	je	L753
L502:
	movl	48(%esp), %edi
	movl	36(%esp), %esi
	movl	%esi, 24(%edi)
	movl	$9, 4(%esp)
	jmp	L737
	.p2align 4,,10
L442:
	movl	%ebp, %ecx
	shrl	$23, %ecx
	testb	$1, %ch
	jne	L754
	movl	%ebp, %eax
	sall	$4, %ecx
	addl	40(%esp), %ecx
	shrl	$14, %eax
	testb	$1, %ah
	je	L495
L797:
	movzbl	%al, %ebp
	movl	52(%esp), %eax
	sall	$4, %ebp
	addl	%ebp, %eax
L496:
	cmpl	$3, 8(%ecx)
	jne	L497
	cmpl	$3, 8(%eax)
	je	L755
L497:
	movl	48(%esp), %edi
	movl	36(%esp), %esi
	movl	%esi, 24(%edi)
	movl	$8, 4(%esp)
	jmp	L737
	.p2align 4,,10
L441:
	movl	%ebp, %ecx
	shrl	$23, %ecx
	testb	$1, %ch
	jne	L756
	movl	%ebp, %eax
	sall	$4, %ecx
	addl	40(%esp), %ecx
	shrl	$14, %eax
	testb	$1, %ah
	je	L490
L796:
	movzbl	%al, %ebp
	movl	52(%esp), %eax
	sall	$4, %ebp
	addl	%ebp, %eax
L491:
	cmpl	$3, 8(%ecx)
	jne	L492
	cmpl	$3, 8(%eax)
	je	L757
L492:
	movl	48(%esp), %edi
	movl	36(%esp), %esi
	movl	%esi, 24(%edi)
	movl	$7, 4(%esp)
	.p2align 4,,10
L737:
	movl	44(%esp), %edx
	movl	%eax, (%esp)
	movl	%edi, %eax
	call	_Arith
	movl	12(%edi), %eax
	movl	%esi, 24(%esp)
	movl	%eax, 40(%esp)
	jmp	L424
	.p2align 4,,10
L440:
	movl	%ebp, %ecx
	shrl	$23, %ecx
	testb	$1, %ch
	jne	L758
	movl	%ebp, %eax
	sall	$4, %ecx
	addl	40(%esp), %ecx
	shrl	$14, %eax
	testb	$1, %ah
	je	L485
L801:
	movzbl	%al, %ebp
	movl	52(%esp), %eax
	sall	$4, %ebp
	addl	%ebp, %eax
L486:
	cmpl	$3, 8(%ecx)
	jne	L487
	cmpl	$3, 8(%eax)
	je	L759
L487:
	movl	48(%esp), %edi
	movl	36(%esp), %esi
	movl	%esi, 24(%edi)
	movl	$6, 4(%esp)
	jmp	L737
	.p2align 4,,10
L439:
	movl	%ebp, %ecx
	shrl	$23, %ecx
	testb	$1, %ch
	jne	L760
	movl	%ebp, %eax
	sall	$4, %ecx
	addl	40(%esp), %ecx
	shrl	$14, %eax
	testb	$1, %ah
	je	L480
L800:
	movzbl	%al, %ebp
	movl	52(%esp), %eax
	sall	$4, %ebp
	addl	%ebp, %eax
L481:
	cmpl	$3, 8(%ecx)
	jne	L482
	cmpl	$3, 8(%eax)
	je	L761
L482:
	movl	48(%esp), %edi
	movl	36(%esp), %esi
	movl	%esi, 24(%edi)
	movl	$5, 4(%esp)
	jmp	L737
	.p2align 4,,10
L438:
	movl	%ebp, %edx
	movl	44(%esp), %esi
	movl	36(%esp), %edi
	shrl	$23, %edx
	sall	$4, %edx
	addl	40(%esp), %edx
	movl	4(%edx), %ebx
	movl	(%edx), %ecx
	movl	%ebx, 20(%esi)
	movl	8(%edx), %eax
	movl	%ecx, 16(%esi)
	movl	%eax, 24(%esi)
	movl	48(%esp), %eax
	movl	%edi, 24(%eax)
	movl	%ebp, %eax
	shrl	$14, %eax
	testb	$1, %ah
	jne	L762
	andl	$511, %eax
	movl	40(%esp), %ecx
	movl	%eax, %ebp
	movl	%esi, %eax
	sall	$4, %ebp
	addl	%ebp, %ecx
L477:
	movl	48(%esp), %edi
	movl	%eax, (%esp)
	movl	%edi, %eax
	call	_luaV_gettable
	jmp	L735
	.p2align 4,,10
L437:
	movl	%ebp, %edx
	shrl	$14, %ebp
	movl	%ebp, %ebx
	shrl	$23, %edx
	andl	$511, %ebx
	movl	%ebx, %edi
	sarl	$3, %edi
	andl	$31, %edi
	jne	L763
	movl	%edx, %eax
	sarl	$3, %eax
	andl	$31, %eax
	jne	L764
L474:
	movl	48(%esp), %edi
	movl	%ebx, %ecx
	movl	%edi, %eax
	call	_luaH_new
	movl	44(%esp), %ecx
	movl	%eax, (%ecx)
	movl	%edi, %eax
	movl	36(%esp), %edi
	movl	$5, 8(%ecx)
	movl	%edi, 24(%eax)
	movl	16(%eax), %eax
	movl	64(%eax), %ecx
	cmpl	%ecx, 68(%eax)
	jnb	L765
L565:
	movl	48(%esp), %eax
	movl	12(%eax), %eax
	movl	%eax, 40(%esp)
	movl	36(%esp), %eax
	movl	%eax, 24(%esp)
	jmp	L424
	.p2align 4,,10
L436:
	movl	48(%esp), %eax
	movl	36(%esp), %ecx
	movl	%ebp, %edx
	shrl	$14, %edx
	testb	$1, %dh
	movl	%ecx, 24(%eax)
	jne	L766
	andl	$511, %edx
	shrl	$23, %ebp
	sall	$4, %edx
	addl	40(%esp), %edx
	testl	$256, %ebp
	je	L471
L795:
	movl	52(%esp), %eax
	andl	$-257, %ebp
	sall	$4, %ebp
	leal	(%eax,%ebp), %ecx
L472:
	movl	48(%esp), %edi
	movl	%edx, (%esp)
	movl	44(%esp), %edx
	movl	%edi, %eax
	call	_luaV_settable
L735:
	movl	12(%edi), %eax
	movl	%eax, 40(%esp)
	movl	36(%esp), %eax
	movl	%eax, 24(%esp)
	jmp	L424
	.p2align 4,,10
L435:
	movl	64(%esp), %eax
	shrl	$23, %ebp
	movl	44(%esp), %edi
	movl	20(%eax,%ebp,4), %ebx
	movl	4(%edi), %edx
	movl	(%edi), %eax
	movl	8(%ebx), %ecx
	movl	%edx, 4(%ecx)
	movl	%eax, (%ecx)
	movl	8(%edi), %eax
	movl	%eax, 8(%ecx)
	cmpl	$3, 8(%edi)
	movl	36(%esp), %eax
	movl	%eax, 24(%esp)
	jle	L424
	movl	(%edi), %edx
	testb	$3, 5(%edx)
	je	L424
	movzbl	5(%ebx), %ecx
	testb	$4, %cl
	je	L424
	movl	48(%esp), %eax
	movl	16(%eax), %eax
	cmpb	$1, 21(%eax)
	je	L767
	movzbl	20(%eax), %eax
	andl	$-8, %ecx
	andl	$3, %eax
	orl	%ecx, %eax
	movb	%al, 5(%ebx)
	jmp	L424
	.p2align 4,,10
L434:
	movl	64(%esp), %eax
	movl	44(%esp), %edi
	shrl	$14, %ebp
	movl	36(%esp), %esi
	movl	52(%esp), %ecx
	sall	$4, %ebp
	leal	96(%esp), %edx
	movl	12(%eax), %eax
	movl	$5, 104(%esp)
	addl	%ebp, %ecx
	movl	%eax, 96(%esp)
	movl	48(%esp), %eax
	movl	%esi, 24(%eax)
	movl	%edi, (%esp)
	movl	%eax, %edi
	call	_luaV_settable
L734:
	movl	12(%edi), %eax
	movl	%esi, 24(%esp)
	movl	%eax, 40(%esp)
	jmp	L424
	.p2align 4,,10
L433:
	movl	48(%esp), %eax
	movl	36(%esp), %ecx
	movl	%ecx, 24(%eax)
	movl	%ebp, %eax
	shrl	$14, %eax
	testb	$1, %ah
	jne	L768
	movl	40(%esp), %ecx
	andl	$511, %eax
	sall	$4, %eax
	addl	%eax, %ecx
L467:
	movl	44(%esp), %eax
	movl	48(%esp), %esi
	shrl	$23, %ebp
	movl	40(%esp), %edx
	sall	$4, %ebp
	movl	%eax, (%esp)
	movl	%esi, %eax
	addl	%ebp, %edx
	call	_luaV_gettable
	movl	12(%esi), %eax
	movl	%eax, 40(%esp)
	movl	36(%esp), %eax
	movl	%eax, 24(%esp)
	jmp	L424
	.p2align 4,,10
L432:
	movl	64(%esp), %eax
	movl	52(%esp), %edi
	shrl	$14, %ebp
	sall	$4, %ebp
	movl	36(%esp), %esi
	leal	96(%esp), %edx
	movl	12(%eax), %eax
	leal	(%edi,%ebp), %ecx
	movl	44(%esp), %edi
	movl	$5, 104(%esp)
	movl	%eax, 96(%esp)
	movl	48(%esp), %eax
	movl	%esi, 24(%eax)
	movl	%edi, (%esp)
	movl	%eax, %edi
	call	_luaV_gettable
	jmp	L734
	.p2align 4,,10
L431:
	movl	64(%esp), %eax
	shrl	$23, %ebp
	movl	20(%eax,%ebp,4), %eax
	movl	8(%eax), %ecx
L733:
	movl	(%ecx), %eax
	movl	4(%ecx), %edx
	movl	44(%esp), %edi
	movl	%eax, (%edi)
	movl	%edx, 4(%edi)
	movl	8(%ecx), %eax
	movl	%eax, 8(%edi)
	movl	36(%esp), %eax
	movl	%eax, 24(%esp)
	jmp	L424
	.p2align 4,,10
L430:
	movl	40(%esp), %eax
	shrl	$23, %ebp
	movl	44(%esp), %edx
	sall	$4, %ebp
	addl	%ebp, %eax
	.p2align 4,,10
L465:
	subl	$16, %eax
	movl	$0, 24(%eax)
	cmpl	%eax, %edx
	jbe	L465
L649:
	movl	36(%esp), %eax
	movl	%eax, 24(%esp)
	jmp	L424
	.p2align 4,,10
L429:
	movl	44(%esp), %ecx
	movl	%ebp, %eax
	shrl	$23, %eax
	movl	%eax, (%ecx)
	movl	24(%esp), %eax
	movl	$1, 8(%ecx)
	addl	$8, %eax
	andl	$8372224, %ebp
	cmove	36(%esp), %eax
	movl	%eax, 24(%esp)
	jmp	L424
	.p2align 4,,10
L428:
	movl	52(%esp), %eax
	shrl	$14, %ebp
	sall	$4, %ebp
L732:
	leal	(%eax,%ebp), %ecx
	jmp	L733
	.p2align 4,,10
L426:
	shrl	$23, %ebp
	movl	40(%esp), %eax
	sall	$4, %ebp
	jmp	L732
	.p2align 4,,10
L464:
	movl	48(%esp), %edi
	movl	64(%esp), %ecx
	shrl	$23, %ebp
	leal	-1(%ebp), %eax
	movl	20(%edi), %ebp
	movl	16(%ecx), %edx
	movl	0(%ebp), %ebx
	subl	4(%ebp), %ebx
	movzbl	73(%edx), %edx
	sarl	$4, %ebx
	subl	%edx, %ebx
	cmpl	$-1, %eax
	leal	-1(%ebx), %edi
	je	L769
L611:
	testl	%eax, %eax
	jle	L649
	movl	44(%esp), %edx
	movl	%ebx, %esi
	movl	%edi, 24(%esp)
	negl	%esi
	sall	$4, %esi
	subl	%edx, %esi
	movl	%edx, %ecx
	xorl	%edx, %edx
	addl	$8, %esi
	addl	$8, %ecx
	movl	%esi, 44(%esp)
	jmp	L615
	.p2align 4,,10
L770:
	movl	44(%esp), %edi
	leal	(%edi,%ecx), %ebx
	addl	0(%ebp), %ebx
	movl	(%ebx), %esi
	movl	4(%ebx), %edi
	movl	8(%ebx), %ebx
	movl	%esi, -8(%ecx)
	movl	%edi, -4(%ecx)
	movl	%ebx, (%ecx)
L614:
	addl	$1, %edx
	addl	$16, %ecx
	cmpl	%eax, %edx
	je	L649
L615:
	cmpl	%edx, 24(%esp)
	jg	L770
	movl	$0, (%ecx)
	jmp	L614
	.p2align 4,,10
L463:
	movl	64(%esp), %ecx
	shrl	$14, %ebp
	movl	16(%ecx), %eax
	movl	12(%ecx), %edi
	xorl	%ecx, %ecx
	movl	16(%eax), %edx
	movl	(%edx,%ebp,4), %ebp
	xorl	%edx, %edx
	movzbl	72(%ebp), %eax
	leal	-4(,%eax,4), %esi
	movl	%eax, %ebx
	movl	%eax, 68(%esp)
	leal	24(%esi), %eax
	movl	%eax, (%esp)
	movl	48(%esp), %eax
	call	_luaM_realloc_
	movl	48(%esp), %edx
	movl	%eax, %ecx
	movl	%eax, 56(%esp)
	movl	16(%edx), %eax
	movl	28(%eax), %edx
	movl	%edx, (%ecx)
	movl	%ecx, 28(%eax)
	movzbl	20(%eax), %eax
	movb	$6, 4(%ecx)
	movb	$0, 6(%ecx)
	movl	%edi, 12(%ecx)
	movb	%bl, 7(%ecx)
	andl	$3, %eax
	movb	%al, 5(%ecx)
	movl	68(%esp), %eax
	testl	%eax, %eax
	je	L597
	sall	$2, %eax
	movl	%eax, %edi
	subl	%eax, %esi
	movl	%eax, 72(%esp)
	cmpl	$4, %edi
	leal	24(%ecx,%esi), %eax
	jnb	L598
	testl	%edi, %edi
	je	L599
	movb	$0, (%eax)
L599:
	movl	56(%esp), %eax
	xorl	%edi, %edi
	movl	%ebp, 16(%eax)
	jmp	L609
	.p2align 4,,10
L772:
	movl	64(%esp), %eax
	movl	56(%esp), %ecx
	movl	20(%eax,%ebx,4), %eax
	movl	%eax, 20(%ecx,%edi,4)
	addl	$1, %edi
	cmpl	%edi, 68(%esp)
	je	L771
L609:
	movl	24(%esp), %eax
	movl	4(%eax,%edi,4), %ebx
	movl	%ebx, %eax
	shrl	$23, %ebx
	andl	$63, %eax
	cmpl	$4, %eax
	je	L772
	movl	48(%esp), %eax
	sall	$4, %ebx
	addl	40(%esp), %ebx
	movl	104(%eax), %edx
	movl	16(%eax), %ebp
	testl	%edx, %edx
	je	L645
	cmpl	8(%edx), %ebx
	movl	%edx, %esi
	ja	L645
	jne	L606
	jmp	L604
	.p2align 4,,10
L773:
	cmpl	8(%edx), %ebx
	ja	L603
	je	L604
	movl	%edx, %esi
L606:
	movl	(%edx), %edx
	testl	%edx, %edx
	jne	L773
L603:
	movl	48(%esp), %eax
	xorl	%edx, %edx
	movl	$32, (%esp)
	xorl	%ecx, %ecx
	call	_luaM_realloc_
	movb	$10, 4(%eax)
	movzbl	20(%ebp), %edx
	movl	%ebx, 8(%eax)
	andl	$3, %edx
	movb	%dl, 5(%eax)
	movl	(%esi), %edx
	movl	%edx, (%eax)
	leal	120(%ebp), %edx
	movl	%eax, (%esi)
	movl	%edx, 16(%eax)
	movl	140(%ebp), %edx
	movl	%edx, 20(%eax)
	movl	%eax, 16(%edx)
	movl	%eax, 140(%ebp)
L607:
	movl	56(%esp), %ecx
	movl	%eax, 20(%ecx,%edi,4)
	addl	$1, %edi
	cmpl	%edi, 68(%esp)
	jne	L609
L771:
	movl	36(%esp), %eax
	addl	72(%esp), %eax
	movl	%eax, 24(%esp)
L622:
	movl	44(%esp), %eax
	movl	56(%esp), %edi
	movl	$6, 8(%eax)
	movl	%edi, (%eax)
	movl	48(%esp), %eax
	movl	24(%esp), %edi
	movl	%edi, 24(%eax)
	movl	16(%eax), %eax
	movl	64(%eax), %edi
	cmpl	%edi, 68(%eax)
	jnb	L774
L610:
	movl	48(%esp), %eax
	movl	12(%eax), %eax
	movl	%eax, 40(%esp)
	jmp	L424
	.p2align 4,,10
L462:
	movl	48(%esp), %eax
	movl	44(%esp), %edx
	call	_luaF_close
	movl	36(%esp), %eax
	movl	%eax, 24(%esp)
	jmp	L424
	.p2align 4,,10
L461:
	movl	%ebp, %edi
	movl	%ebp, %eax
	shrl	$14, %eax
	shrl	$23, %edi
	andl	$511, %eax
	testl	%edi, %edi
	jne	L591
	movl	48(%esp), %ecx
	movl	8(%ecx), %edi
	movl	20(%ecx), %edx
	movl	%edi, 56(%esp)
	subl	44(%esp), %edi
	movl	8(%edx), %edx
	sarl	$4, %edi
	movl	%edx, 8(%ecx)
	subl	$1, %edi
L591:
	testl	%eax, %eax
	je	L775
	movl	36(%esp), %esi
	movl	%esi, 24(%esp)
L592:
	movl	44(%esp), %ecx
	cmpl	$5, 8(%ecx)
	jne	L424
	leal	-1(%eax), %ebx
	movl	(%ecx), %ebp
	imull	$50, %ebx, %ebx
	addl	%edi, %ebx
	cmpl	28(%ebp), %ebx
	jg	L776
L593:
	testl	%edi, %edi
	jle	L424
	movl	%edi, %esi
	movl	%ebx, %eax
	movl	%ebx, %ecx
	sall	$4, %esi
	addl	44(%esp), %esi
	movl	48(%esp), %ebx
	subl	%edi, %eax
	movl	%eax, 36(%esp)
	.p2align 4,,10
L596:
	movl	%ebp, %edx
	movl	%ebx, %eax
	leal	-1(%ecx), %edi
	call	_luaH_setnum
	movl	(%esi), %edx
	movl	4(%esi), %ecx
	movl	%edx, (%eax)
	movl	%ecx, 4(%eax)
	movl	8(%esi), %edx
	movl	%edx, 8(%eax)
	cmpl	$3, 8(%esi)
	jle	L595
	movl	(%esi), %eax
	testb	$3, 5(%eax)
	je	L595
	movzbl	5(%ebp), %eax
	testb	$4, %al
	je	L595
	movl	16(%ebx), %edx
	andl	$-5, %eax
	movb	%al, 5(%ebp)
	movl	40(%edx), %eax
	movl	%eax, 24(%ebp)
	movl	%ebp, 40(%edx)
	.p2align 4,,10
L595:
	subl	$16, %esi
	cmpl	36(%esp), %edi
	movl	%edi, %ecx
	jne	L596
	jmp	L424
	.p2align 4,,10
L460:
	movl	44(%esp), %edi
	movl	48(%esp), %ecx
	movl	32(%edi), %eax
	movl	36(%edi), %edx
	movl	%eax, 80(%edi)
	movl	40(%edi), %eax
	movl	%edx, 84(%edi)
	movl	20(%edi), %edx
	movl	%eax, 88(%edi)
	movl	16(%edi), %eax
	movl	%edx, 68(%edi)
	movl	4(%edi), %edx
	movl	%eax, 64(%edi)
	movl	24(%edi), %eax
	movl	%edx, 52(%edi)
	movl	36(%esp), %edx
	movl	%eax, 72(%edi)
	movl	(%edi), %eax
	movl	%eax, 48(%edi)
	movl	8(%edi), %eax
	movl	%eax, 56(%edi)
	leal	96(%edi), %eax
	movl	%edx, 24(%ecx)
	leal	48(%edi), %edx
	movl	%eax, 8(%ecx)
	movl	%ecx, %eax
	movl	%ebp, %ecx
	shrl	$14, %ecx
	movl	%eax, %edi
	andl	$511, %ecx
	call	_luaD_call
	movl	12(%edi), %eax
	movl	%edi, %ecx
	movl	%eax, 40(%esp)
	movl	%eax, %edi
	movl	20(%ecx), %eax
	movl	8(%eax), %eax
	movl	%eax, 8(%ecx)
	leal	48(%edi,%esi), %ecx
	movl	8(%ecx), %ebx
	testl	%ebx, %ebx
	je	L589
	movl	(%ecx), %eax
	movl	4(%ecx), %edx
	movl	%ebx, -8(%ecx)
	movl	%eax, -16(%ecx)
	movl	24(%esp), %eax
	movl	%edx, -12(%ecx)
	movl	36(%esp), %edx
	movl	4(%eax), %eax
	shrl	$14, %eax
	leal	-524284(%edx,%eax,4), %eax
	movl	%eax, 36(%esp)
L589:
	movl	36(%esp), %eax
	addl	$4, %eax
	movl	%eax, 24(%esp)
	jmp	L424
	.p2align 4,,10
L458:
	movl	44(%esp), %eax
	fldl	32(%eax)
	fldl	(%eax)
	fadd	%st(1), %st
	fldl	16(%eax)
	fldz
	fxch	%st(3)
	fucomip	%st(3), %st
	fstp	%st(2)
	jbe	L725
	fxch	%st(1)
	fucomip	%st(1), %st
	movl	%edi, %ecx
	setnb	%al
L579:
	testb	%al, %al
	movl	%ecx, 24(%esp)
	je	L806
	shrl	$14, %ebp
	leal	-524284(%ecx,%ebp,4), %eax
	movl	%eax, 24(%esp)
	movl	44(%esp), %eax
	fstl	(%eax)
	movl	$3, 8(%eax)
	movl	$3, 56(%eax)
	fstpl	48(%eax)
	jmp	L424
	.p2align 4,,10
L457:
	movl	%ebp, %ecx
	movl	44(%esp), %esi
	shrl	$23, %ecx
	testl	%ecx, %ecx
	jne	L777
L569:
	movl	48(%esp), %eax
	movl	104(%eax), %edx
	testl	%edx, %edx
	je	L570
	movl	40(%esp), %edx
	call	_luaF_close
L570:
	movl	48(%esp), %ecx
	movl	20(%ecx), %edi
	leal	-24(%edi), %eax
	movl	16(%edi), %ebp
	movl	-24(%edi), %ebx
	movl	%eax, %edx
	movl	%eax, 36(%esp)
	movl	4(%edi), %eax
	movl	%edx, 20(%ecx)
	movl	-12(%edi), %edx
	testl	%ebp, %ebp
	movl	%ebx, 12(%ecx)
	movl	%edx, 24(%ecx)
	je	L571
	movl	8(%ecx), %ecx
	movl	%ebp, %edx
	cmpl	%ecx, %esi
	jnb	L572
	movl	%edi, 24(%esp)
	movl	%ebp, 40(%esp)
	jmp	L574
	.p2align 4,,10
L779:
	cmpl	%ecx, %esi
	jnb	L778
L574:
	addl	$16, %esi
	movl	-16(%esi), %edi
	movl	-12(%esi), %ebp
	addl	$16, %eax
	subl	$1, %edx
	movl	%edi, -16(%eax)
	movl	%ebp, -12(%eax)
	movl	-8(%esi), %ebx
	movl	%ebx, -8(%eax)
	jne	L779
	movl	24(%esp), %edi
	movl	40(%esp), %ebp
L573:
	subl	$1, 76(%esp)
	movl	48(%esp), %ecx
	movl	%eax, 8(%ecx)
	je	L558
	cmpl	$-1, %ebp
	je	L576
	movl	24(%ecx), %edx
	movl	12(%ecx), %ebx
	movl	%ecx, %esi
L621:
	movl	-16(%edi), %eax
	movl	%eax, 8(%esi)
L561:
	movl	%edx, 24(%esp)
	movl	%ebx, 40(%esp)
	movl	36(%esp), %eax
	jmp	L423
	.p2align 4,,10
L456:
	shrl	$23, %ebp
	testl	%ebp, %ebp
	jne	L780
L563:
	movl	48(%esp), %eax
	movl	44(%esp), %edx
	movl	$-1, %ecx
	movl	%edi, 24(%eax)
	call	_luaD_precall
	testl	%eax, %eax
	je	L564
	cmpl	$1, %eax
	je	L565
	jmp	L558
	.p2align 4,,10
L455:
	movl	%ebp, %edx
	shrl	$14, %ebp
	shrl	$23, %edx
	andl	$511, %ebp
	testl	%edx, %edx
	leal	-1(%ebp), %ebx
	jne	L781
L557:
	movl	36(%esp), %ecx
	movl	48(%esp), %eax
	movl	44(%esp), %edx
	movl	%ecx, 24(%eax)
	movl	%ebx, %ecx
	call	_luaD_precall
	testl	%eax, %eax
	je	L559
	cmpl	$1, %eax
	jne	L558
	cmpl	$-1, %ebx
	je	L565
	movl	48(%esp), %edi
	movl	20(%edi), %eax
	movl	8(%eax), %eax
	movl	%eax, 8(%edi)
	jmp	L565
	.p2align 4,,10
L454:
	movl	%ebp, %edx
	movl	$1, %ecx
	shrl	$23, %edx
	sall	$4, %edx
	addl	40(%esp), %edx
	movl	8(%edx), %ebx
	testl	%ebx, %ebx
	jne	L782
L555:
	shrl	$14, %ebp
	andl	$511, %ebp
	cmpl	%ecx, %ebp
	je	L589
	movl	(%edx), %eax
	movl	44(%esp), %ecx
	movl	4(%edx), %edx
	movl	%eax, (%ecx)
	movl	%ebx, 8(%ecx)
	movl	%edx, 4(%ecx)
	jmp	L742
	.p2align 4,,10
L453:
	movl	44(%esp), %eax
	movl	8(%eax), %edx
	movl	$1, %eax
	testl	%edx, %edx
	jne	L783
L553:
	shrl	$14, %ebp
	andl	$511, %ebp
	cmpl	%eax, %ebp
	je	L589
L742:
	movl	24(%esp), %eax
	movl	36(%esp), %edi
	movl	4(%eax), %eax
	shrl	$14, %eax
	leal	-524284(%edi,%eax,4), %eax
	movl	%eax, 36(%esp)
	movl	36(%esp), %eax
	addl	$4, %eax
	movl	%eax, 24(%esp)
	jmp	L424
	.p2align 4,,10
L451:
	movl	36(%esp), %ecx
	movl	48(%esp), %eax
	movl	%ecx, 24(%eax)
	movl	%ebp, %ecx
	shrl	$14, %ecx
	testb	$1, %ch
	jne	L784
	andl	$511, %ecx
	shrl	$23, %ebp
	sall	$4, %ecx
	addl	40(%esp), %ecx
	testl	$256, %ebp
	je	L536
L794:
	movl	52(%esp), %eax
	andl	$-257, %ebp
	sall	$4, %ebp
	leal	(%eax,%ebp), %edx
L537:
	movl	48(%esp), %eax
	call	_luaV_lessthan
	cmpl	%ebx, %eax
	jne	L552
	movl	24(%esp), %eax
	movl	36(%esp), %edi
	movl	4(%eax), %eax
	shrl	$14, %eax
	leal	-524284(%edi,%eax,4), %eax
	movl	%eax, 36(%esp)
	jmp	L552
	.p2align 4,,10
L452:
	movl	48(%esp), %eax
	movl	36(%esp), %edi
	movl	%edi, 24(%eax)
	movl	%ebp, %eax
	shrl	$14, %eax
	testb	$1, %ah
	jne	L785
	movl	40(%esp), %esi
	andl	$511, %eax
	shrl	$23, %ebp
	sall	$4, %eax
	testl	$256, %ebp
	leal	(%esi,%eax), %edi
	je	L541
L792:
	movl	52(%esp), %eax
	andl	$-257, %ebp
	movl	8(%edi), %ecx
	sall	$4, %ebp
	leal	(%eax,%ebp), %esi
	movl	8(%esi), %edx
	cmpl	%ecx, %edx
	jne	L740
L793:
	cmpl	$3, %edx
	je	L786
	cmpl	$4, %edx
	je	L787
	movl	48(%esp), %eax
	movl	$14, (%esp)
	movl	%edi, %ecx
	movl	%esi, %edx
	call	_call_orderTM
	cmpl	$-1, %eax
	jne	L544
	movl	48(%esp), %eax
	movl	$13, (%esp)
	movl	%esi, %ecx
	movl	%edi, %edx
	call	_call_orderTM
	cmpl	$-1, %eax
	je	L551
	testl	%eax, %eax
	sete	%al
	movzbl	%al, %eax
	jmp	L544
	.p2align 4,,10
L450:
	movl	%ebp, %edi
	shrl	$23, %edi
	testl	$256, %edi
	jne	L788
	movl	%ebp, %eax
	sall	$4, %edi
	addl	40(%esp), %edi
	shrl	$14, %eax
	testb	$1, %ah
	je	L517
L791:
	movzbl	%al, %ebp
	movl	52(%esp), %eax
	sall	$4, %ebp
	leal	(%eax,%ebp), %esi
L518:
	movl	48(%esp), %eax
	movl	36(%esp), %ecx
	movl	%ecx, 24(%eax)
	movl	8(%edi), %eax
	cmpl	8(%esi), %eax
	je	L789
L519:
	xorl	%eax, %eax
L544:
	cmpl	%eax, %ebx
	je	L790
L552:
	movl	48(%esp), %eax
	movl	12(%eax), %eax
	movl	%eax, 40(%esp)
	movl	36(%esp), %eax
	addl	$4, %eax
	movl	%eax, 24(%esp)
	jmp	L424
L775:
	movl	24(%esp), %ecx
	movl	4(%ecx), %eax
	addl	$8, %ecx
	movl	%ecx, 24(%esp)
	jmp	L592
L788:
	movl	%ebp, %eax
	andl	$-257, %edi
	shrl	$14, %eax
	sall	$4, %edi
	addl	52(%esp), %edi
	testb	$1, %ah
	jne	L791
L517:
	andl	$511, %eax
	movl	40(%esp), %esi
	movl	%eax, %ebp
	sall	$4, %ebp
	addl	%ebp, %esi
	jmp	L518
L764:
	andl	$7, %edx
	leal	-1(%eax), %ecx
	addl	$8, %edx
	sall	%cl, %edx
	jmp	L474
L785:
	movl	52(%esp), %edi
	movzbl	%al, %eax
	shrl	$23, %ebp
	sall	$4, %eax
	addl	%eax, %edi
	testl	$256, %ebp
	jne	L792
L541:
	movl	40(%esp), %esi
	sall	$4, %ebp
	movl	8(%edi), %ecx
	addl	%ebp, %esi
	movl	8(%esi), %edx
	cmpl	%ecx, %edx
	je	L793
L740:
	movl	48(%esp), %eax
	call	_luaG_ordererror.isra.60
	cmpl	%eax, %ebx
	jne	L552
L790:
	movl	24(%esp), %eax
	movl	36(%esp), %ecx
	movl	4(%eax), %eax
	shrl	$14, %eax
	leal	-524284(%ecx,%eax,4), %eax
	movl	%eax, 36(%esp)
	jmp	L552
L783:
	xorl	%eax, %eax
	cmpl	$1, %edx
	jne	L553
	movl	44(%esp), %eax
	movl	(%eax), %edi
	xorl	%eax, %eax
	testl	%edi, %edi
	sete	%al
	jmp	L553
L782:
	xorl	%ecx, %ecx
	cmpl	$1, %ebx
	jne	L555
	movl	(%edx), %esi
	xorl	%ecx, %ecx
	testl	%esi, %esi
	sete	%cl
	jmp	L555
L781:
	movl	44(%esp), %eax
	movl	48(%esp), %ecx
	sall	$4, %edx
	addl	%edx, %eax
	movl	%eax, 8(%ecx)
	jmp	L557
L780:
	movl	44(%esp), %eax
	movl	48(%esp), %edi
	sall	$4, %ebp
	addl	%ebp, %eax
	movl	%eax, 8(%edi)
	movl	36(%esp), %edi
	jmp	L563
L784:
	movzbl	%cl, %ecx
	shrl	$23, %ebp
	sall	$4, %ecx
	addl	52(%esp), %ecx
	testl	$256, %ebp
	jne	L794
L536:
	movl	40(%esp), %edx
	sall	$4, %ebp
	addl	%ebp, %edx
	jmp	L537
L777:
	addl	$268435455, %ecx
	sall	$4, %ecx
	leal	(%esi,%ecx), %eax
	movl	48(%esp), %ecx
	movl	%eax, 8(%ecx)
	jmp	L569
L768:
	movl	52(%esp), %ecx
	movzbl	%al, %eax
	sall	$4, %eax
	addl	%eax, %ecx
	jmp	L467
L766:
	movzbl	%dl, %edx
	shrl	$23, %ebp
	sall	$4, %edx
	addl	52(%esp), %edx
	testl	$256, %ebp
	jne	L795
L471:
	movl	40(%esp), %ecx
	sall	$4, %ebp
	addl	%ebp, %ecx
	jmp	L472
L756:
	movl	%ebp, %eax
	andb	$254, %ch
	shrl	$14, %eax
	sall	$4, %ecx
	addl	52(%esp), %ecx
	testb	$1, %ah
	jne	L796
L490:
	andl	$511, %eax
	movl	%eax, %ebp
	movl	40(%esp), %eax
	sall	$4, %ebp
	addl	%ebp, %eax
	jmp	L491
L754:
	movl	%ebp, %eax
	andb	$254, %ch
	shrl	$14, %eax
	sall	$4, %ecx
	addl	52(%esp), %ecx
	testb	$1, %ah
	jne	L797
L495:
	andl	$511, %eax
	movl	%eax, %ebp
	movl	40(%esp), %eax
	sall	$4, %ebp
	addl	%ebp, %eax
	jmp	L496
L752:
	movl	%ebp, %eax
	andb	$254, %ch
	shrl	$14, %eax
	sall	$4, %ecx
	addl	52(%esp), %ecx
	testb	$1, %ah
	jne	L798
L500:
	andl	$511, %eax
	movl	%eax, %ebp
	movl	40(%esp), %eax
	sall	$4, %ebp
	addl	%ebp, %eax
	jmp	L501
L750:
	movl	%ebp, %eax
	andb	$254, %ch
	shrl	$14, %eax
	sall	$4, %ecx
	addl	52(%esp), %ecx
	testb	$1, %ah
	jne	L799
L505:
	andl	$511, %eax
	movl	%eax, %ebp
	movl	40(%esp), %eax
	sall	$4, %ebp
	addl	%ebp, %eax
	jmp	L506
L760:
	movl	%ebp, %eax
	andb	$254, %ch
	shrl	$14, %eax
	sall	$4, %ecx
	addl	52(%esp), %ecx
	testb	$1, %ah
	jne	L800
L480:
	andl	$511, %eax
	movl	%eax, %ebp
	movl	40(%esp), %eax
	sall	$4, %ebp
	addl	%ebp, %eax
	jmp	L481
L758:
	movl	%ebp, %eax
	andb	$254, %ch
	shrl	$14, %eax
	sall	$4, %ecx
	addl	52(%esp), %ecx
	testb	$1, %ah
	jne	L801
L485:
	andl	$511, %eax
	movl	%eax, %ebp
	movl	40(%esp), %eax
	sall	$4, %ebp
	addl	%ebp, %eax
	jmp	L486
L762:
	movzbl	%al, %ebp
	movl	52(%esp), %eax
	sall	$4, %ebp
	leal	(%eax,%ebp), %ecx
	movl	%esi, %eax
	jmp	L477
L763:
	andl	$7, %ebp
	leal	-1(%edi), %ecx
	movl	%edx, %eax
	leal	8(%ebp), %ebx
	sarl	$3, %eax
	sall	%cl, %ebx
	andl	$31, %eax
	je	L474
	jmp	L764
L749:
	fldl	(%ecx)
	fchs
L736:
	movl	44(%esp), %eax
	fstpl	(%eax)
	movl	$3, 8(%eax)
	movl	36(%esp), %eax
	movl	%eax, 24(%esp)
	jmp	L424
L598:
	movl	$0, (%eax)
	leal	4(%eax), %edi
	movl	72(%esp), %esi
	andl	$-4, %edi
	movl	$0, -4(%eax,%esi)
	subl	%edi, %eax
	leal	(%esi,%eax), %ecx
	xorl	%eax, %eax
	shrl	$2, %ecx
	rep stosl
	jmp	L599
L724:
	movl	48(%esp), %eax
	movl	$_luaO_nilobject_, %ecx
	movl	%ebx, %edx
	movl	%edi, 24(%eax)
	movl	44(%esp), %edi
	movl	$12, 4(%esp)
	movl	%edi, (%esp)
	call	_call_binTM
	testl	%eax, %eax
	jne	L565
	movl	8(%ebx), %eax
	movl	$LC35, 8(%esp)
	movl	$LC36, 4(%esp)
	movl	_luaT_typenames(,%eax,4), %eax
	movl	%eax, 12(%esp)
	movl	48(%esp), %eax
	movl	%eax, (%esp)
	call	_luaG_runerror
	jmp	L565
L746:
	movl	%edi, %eax
	movl	$5, %edx
	movl	%ecx, 24(%esp)
	call	_luaD_throw
	movl	24(%esp), %ecx
	jmp	L420
L745:
	movl	$LC34, 4(%esp)
	movl	%edi, (%esp)
	movl	%ecx, 24(%esp)
	call	_luaG_runerror
	movl	24(%esp), %ecx
	jmp	L420
L789:
	cmpl	$7, %eax
	ja	L520
	jmp	*L522(,%eax,4)
	.section .rdata,"dr"
	.align 4
L522:
	.long	L521
	.long	L520
	.long	L520
	.long	L525
	.long	L520
	.long	L526
	.long	L520
	.long	L526
	.text
	.p2align 4,,10
L604:
	movzbl	5(%edx), %eax
	movzbl	20(%ebp), %ecx
	movl	%eax, %esi
	xorl	$3, %ecx
	movl	%eax, %ebp
	andl	$3, %esi
	movl	%edx, %eax
	movl	%esi, %ebx
	testb	%bl, %cl
	je	L607
	movl	%ebp, %ebx
	xorl	$3, %ebx
	movb	%bl, 5(%edx)
	jmp	L607
L576:
	movl	24(%ecx), %edx
	movl	12(%ecx), %ebx
	jmp	L561
L778:
	movl	24(%esp), %edi
	movl	40(%esp), %ebp
L572:
	testl	%edx, %edx
	leal	-1(%edx), %ecx
	jle	L573
	movl	%eax, %ebx
	.p2align 4,,10
L575:
	subl	$1, %ecx
	addl	$16, %ebx
	movl	$0, -8(%ebx)
	cmpl	$-1, %ecx
	jne	L575
	sall	$4, %edx
	addl	%edx, %eax
	jmp	L573
L581:
	movl	44(%esp), %eax
	movl	%eax, %edx
	call	_luaV_tonumber.part.47
	testl	%eax, %eax
	je	L583
L580:
	movl	44(%esp), %eax
	movl	24(%eax), %eax
	cmpl	$3, %eax
	je	L727
	cmpl	$4, %eax
	je	L584
L585:
	movl	48(%esp), %eax
	movl	$LC38, 4(%esp)
	movl	%eax, (%esp)
	call	_luaG_runerror
	jmp	L582
L584:
	movl	44(%esp), %eax
	addl	$16, %eax
	movl	%eax, %edx
	call	_luaV_tonumber.part.47
	testl	%eax, %eax
	je	L585
L727:
	movl	44(%esp), %eax
	movl	40(%eax), %eax
	cmpl	$3, %eax
	je	L582
	cmpl	$4, %eax
	je	L587
L588:
	movl	48(%esp), %eax
	movl	$LC39, 4(%esp)
	movl	%eax, (%esp)
	call	_luaG_runerror
	fldl	0
	fstp	%st(0)
	ud2
L511:
	movl	(%ebx), %eax
	xorl	%edx, %edx
	movl	%edx, 28(%esp)
	movl	12(%eax), %eax
	movl	%eax, 24(%esp)
	movl	44(%esp), %eax
	fildq	24(%esp)
	movl	$3, 8(%eax)
	fstpl	(%eax)
	movl	36(%esp), %eax
	movl	%eax, 24(%esp)
	jmp	L424
L559:
	movl	48(%esp), %eax
	addl	$1, 76(%esp)
	movl	20(%eax), %edi
	movl	24(%eax), %edx
	movl	12(%eax), %ebx
	movl	%edi, 36(%esp)
	jmp	L561
L564:
	movl	48(%esp), %eax
	movl	104(%eax), %ecx
	movl	20(%eax), %esi
	testl	%ecx, %ecx
	movl	-20(%esi), %ebp
	movl	4(%esi), %edi
	je	L638
	movl	-24(%esi), %edx
	call	_luaF_close
	movl	48(%esp), %eax
	movl	-20(%esi), %ebx
	movl	20(%eax), %eax
	movl	%eax, 40(%esp)
	movl	48(%esp), %eax
L566:
	subl	%edi, %ebx
	movl	8(%eax), %ecx
	addl	(%esi), %ebx
	cmpl	%ecx, %edi
	movl	%ebx, -24(%esi)
	movl	%ebx, 12(%eax)
	jnb	L639
	movl	%ebp, %edx
	movl	%edi, %eax
	movl	%esi, 24(%esp)
	movl	%ebx, 36(%esp)
	.p2align 4,,10
L568:
	movl	4(%eax), %esi
	movl	(%eax), %ebx
	addl	$16, %eax
	addl	$16, %edx
	movl	%ebx, -16(%edx)
	movl	%esi, -12(%edx)
	movl	-8(%eax), %esi
	movl	%esi, -8(%edx)
	cmpl	%ecx, %eax
	jb	L568
	notl	%edi
	movl	24(%esp), %esi
	movl	36(%esp), %ebx
	leal	(%edi,%ecx), %eax
	andl	$-16, %eax
	addl	$16, %eax
L567:
	addl	%eax, %ebp
	movl	48(%esp), %eax
	movl	40(%esp), %edi
	movl	24(%eax), %edx
	subl	$24, %edi
	movl	%ebp, 8(%eax)
	movl	%edi, 36(%esp)
	movl	%ebp, -16(%esi)
	addl	$1, -4(%esi)
	movl	%edx, -12(%esi)
	movl	%edi, 20(%eax)
	jmp	L561
L645:
	movl	80(%esp), %esi
	jmp	L603
L774:
	movl	48(%esp), %eax
	call	_luaC_step
	jmp	L610
L765:
	movl	48(%esp), %eax
	call	_luaC_step
	jmp	L565
L748:
	movl	48(%esp), %eax
	call	_luaC_step
	jmp	L514
L769:
	movl	48(%esp), %eax
	movl	36(%esp), %ecx
	movl	%edi, %edx
	sall	$4, %edx
	movl	%ecx, 24(%eax)
	movl	%eax, %ecx
	movl	28(%eax), %eax
	subl	8(%ecx), %eax
	cmpl	%edx, %eax
	jle	L802
L612:
	movl	48(%esp), %ecx
	movl	12(%ecx), %eax
	addl	%eax, %esi
	movl	%eax, 40(%esp)
	movl	%edi, %eax
	sall	$4, %eax
	movl	%esi, 44(%esp)
	addl	%esi, %eax
	movl	%eax, 8(%ecx)
	movl	%edi, %eax
	jmp	L611
L725:
	fucomi	%st(1), %st
	fstp	%st(1)
	movl	%edi, %ecx
	setnb	%al
	jmp	L579
L587:
	movl	%ebx, %edx
	movl	%ebx, %eax
	call	_luaV_tonumber.part.47
	testl	%eax, %eax
	movl	%eax, %ebx
	jne	L582
	jmp	L588
	.p2align 4,,10
L757:
	fldl	(%ecx)
	fmull	(%eax)
	jmp	L736
L753:
	fldl	(%ecx)
	fldl	(%eax)
	fld	%st(1)
	fstpl	56(%esp)
	fdivr	%st, %st(1)
	fstpl	24(%esp)
	fstpl	(%esp)
	call	_floor
	fldl	24(%esp)
	movl	44(%esp), %eax
	fmulp	%st, %st(1)
	movl	$3, 8(%eax)
	fldl	56(%esp)
	fsubp	%st, %st(1)
	fstpl	(%eax)
	movl	36(%esp), %eax
	movl	%eax, 24(%esp)
	jmp	L424
L755:
	fldl	(%ecx)
	fdivl	(%eax)
	jmp	L736
L759:
	fldl	(%ecx)
	fsubl	(%eax)
	jmp	L736
L761:
	fldl	(%ecx)
	faddl	(%eax)
	jmp	L736
L520:
	movl	(%esi), %eax
	cmpl	%eax, (%edi)
	sete	%al
	movzbl	%al, %eax
	jmp	L544
L526:
	movl	(%edi), %eax
	movl	(%esi), %edx
	cmpl	%edx, %eax
	je	L521
	movl	8(%edx), %ecx
	movl	8(%eax), %edx
	movl	84(%esp), %eax
	call	_get_compTM.isra.35.constprop.168
	testl	%eax, %eax
	je	L519
	movl	48(%esp), %ebp
	leal	8(%esi), %ecx
	movl	8(%ebp), %edx
	movl	%ecx, 12(%esp)
	leal	8(%edi), %ecx
	movl	%esi, 8(%esp)
	movl	%edi, (%esp)
	movl	%ecx, 4(%esp)
	movl	%eax, %ecx
	movl	%ebp, %eax
	call	_callTMres.isra.49
	movl	8(%ebp), %eax
	movl	8(%eax), %edx
	testl	%edx, %edx
	je	L519
	cmpl	$1, %edx
	je	L803
L521:
	movl	$1, %eax
	jmp	L544
L525:
	fldl	(%edi)
	xorl	%eax, %eax
	movl	$0, %edx
	fldl	(%esi)
	fucomip	%st(1), %st
	fstp	%st(0)
	setnp	%al
	cmovne	%edx, %eax
	jmp	L544
L786:
	fldl	(%edi)
	xorl	%eax, %eax
	fldl	(%esi)
	fxch	%st(1)
	fucomip	%st(1), %st
	fstp	%st(0)
	setnb	%al
	jmp	L544
L638:
	movl	%esi, 40(%esp)
	movl	%ebp, %ebx
	jmp	L566
L787:
	movl	(%esi), %edx
	movl	(%edi), %eax
	movl	%ebx, 40(%esp)
	movl	12(%edx), %edi
	leal	16(%edx), %esi
	movl	12(%eax), %ebp
	movl	%edi, %ecx
	leal	16(%eax), %edi
	movl	%ecx, %ebx
	jmp	L550
	.p2align 4,,10
L805:
	movl	%esi, (%esp)
	call	_strlen
	cmpl	%ebp, %eax
	je	L804
	cmpl	%ebx, %eax
	je	L632
	addl	$1, %eax
	addl	%eax, %esi
	subl	%eax, %ebx
	addl	%eax, %edi
	subl	%eax, %ebp
L550:
	movl	%edi, 4(%esp)
	movl	%esi, (%esp)
	call	_strcoll
	cmpl	$0, %eax
	je	L805
	setle	%al
	movl	40(%esp), %ebx
	movzbl	%al, %eax
	jmp	L544
L597:
	movl	36(%esp), %eax
	movl	%ebp, 16(%ecx)
	movl	%eax, 24(%esp)
	jmp	L622
L776:
	cmpl	$_dummynode_, 16(%ebp)
	je	L643
	movzbl	7(%ebp), %ecx
	movl	$1, %eax
	sall	%cl, %eax
L594:
	movl	%eax, (%esp)
	movl	48(%esp), %eax
	movl	%ebx, %ecx
	movl	%ebp, %edx
	call	_resize
	jmp	L593
L802:
	movl	%edi, %edx
	movl	%ecx, %eax
	call	_luaD_growstack
	jmp	L612
L751:
	fldl	(%eax)
	fstpl	8(%esp)
	fldl	(%ecx)
	fstpl	(%esp)
	call	_pow
	jmp	L736
L571:
	subl	$1, 76(%esp)
	movl	%ecx, %esi
	movl	%eax, 8(%ecx)
	jne	L621
	jmp	L558
	.p2align 4,,10
L632:
	movl	40(%esp), %ebx
	movl	$1, %eax
	jmp	L544
L804:
	movl	%ebx, %eax
	movl	40(%esp), %ebx
	cmpl	%eax, %ebp
	sete	%al
	movzbl	%al, %eax
	jmp	L544
L639:
	xorl	%eax, %eax
	jmp	L567
L767:
	call	_reallymarkobject
	jmp	L424
L551:
	movl	8(%edi), %ecx
	movl	8(%esi), %edx
	jmp	L740
L803:
	movl	(%eax), %ebp
	testl	%ebp, %ebp
	je	L519
	jmp	L521
	.p2align 4,,10
L643:
	xorl	%eax, %eax
	jmp	L594
	.p2align 4,,10
L623:
	movl	%edi, 24(%esp)
	jmp	L424
	.cfi_endproc
LFE101:
	.section	.text.unlikely,"x"
LCOLDE40:
	.text
LHOTE40:
	.section	.text.unlikely,"x"
LCOLDB41:
	.text
LHOTB41:
	.p2align 4,,15
	.def	_luaG_errormsg;	.scl	3;	.type	32;	.endef
_luaG_errormsg:
LFB188:
	.cfi_startproc
	pushl	%esi
	.cfi_def_cfa_offset 8
	.cfi_offset 6, -8
	pushl	%ebx
	.cfi_def_cfa_offset 12
	.cfi_offset 3, -12
	movl	%eax, %ebx
	subl	$4, %esp
	.cfi_def_cfa_offset 16
	movl	116(%eax), %esi
	testl	%esi, %esi
	je	L808
	addl	32(%eax), %esi
	cmpl	$6, 8(%esi)
	je	L809
	movl	$5, %edx
	call	_luaD_throw
L809:
	movl	8(%ebx), %ecx
	movl	-16(%ecx), %eax
	movl	-12(%ecx), %edx
	movl	%eax, (%ecx)
	movl	-8(%ecx), %eax
	movl	%edx, 4(%ecx)
	movl	%eax, 8(%ecx)
	movl	(%esi), %eax
	movl	4(%esi), %edx
	movl	%eax, -16(%ecx)
	movl	%edx, -12(%ecx)
	movl	8(%esi), %eax
	movl	%eax, -8(%ecx)
	movl	28(%ebx), %eax
	subl	%ecx, %eax
	cmpl	$16, %eax
	jle	L815
L810:
	leal	16(%ecx), %eax
	leal	-16(%ecx), %edx
	movl	$1, %ecx
	movl	%eax, 8(%ebx)
	movl	%ebx, %eax
	call	_luaD_call
L808:
	addl	$4, %esp
	.cfi_remember_state
	.cfi_def_cfa_offset 12
	movl	%ebx, %eax
	movl	$2, %edx
	popl	%ebx
	.cfi_restore 3
	.cfi_def_cfa_offset 8
	popl	%esi
	.cfi_restore 6
	.cfi_def_cfa_offset 4
	jmp	_luaD_throw
	.p2align 4,,10
L815:
	.cfi_restore_state
	movl	$1, %edx
	movl	%ebx, %eax
	call	_luaD_growstack
	movl	8(%ebx), %ecx
	jmp	L810
	.cfi_endproc
LFE188:
	.section	.text.unlikely,"x"
LCOLDE41:
	.text
LHOTE41:
	.section .rdata,"dr"
LC42:
	.ascii "%s:%d: %s\0"
	.section	.text.unlikely,"x"
LCOLDB43:
	.text
LHOTB43:
	.p2align 4,,15
	.def	_luaG_runerror;	.scl	3;	.type	32;	.endef
_luaG_runerror:
LFB189:
	.cfi_startproc
	pushl	%ebp
	.cfi_def_cfa_offset 8
	.cfi_offset 5, -8
	pushl	%edi
	.cfi_def_cfa_offset 12
	.cfi_offset 7, -12
	pushl	%esi
	.cfi_def_cfa_offset 16
	.cfi_offset 6, -16
	pushl	%ebx
	.cfi_def_cfa_offset 20
	.cfi_offset 3, -20
	subl	$108, %esp
	.cfi_def_cfa_offset 128
	movl	128(%esp), %ebx
	movl	132(%esp), %edx
	leal	136(%esp), %ecx
	movl	%ebx, %eax
	call	_luaO_pushvfstring
	movl	20(%ebx), %edx
	movl	%eax, %esi
	movl	4(%edx), %eax
	cmpl	$6, 8(%eax)
	je	L825
L817:
	movl	%ebx, %eax
	call	_luaG_errormsg
	addl	$108, %esp
	.cfi_remember_state
	.cfi_def_cfa_offset 20
	popl	%ebx
	.cfi_restore 3
	.cfi_def_cfa_offset 16
	popl	%esi
	.cfi_restore 6
	.cfi_def_cfa_offset 12
	popl	%edi
	.cfi_restore 7
	.cfi_def_cfa_offset 8
	popl	%ebp
	.cfi_restore 5
	.cfi_def_cfa_offset 4
	ret
	.p2align 4,,10
L825:
	.cfi_restore_state
	movl	(%eax), %eax
	cmpb	$0, 6(%eax)
	jne	L817
	movl	24(%ebx), %edi
	movl	%edi, 12(%edx)
	movl	16(%eax), %ecx
	subl	12(%ecx), %edi
	sarl	$2, %edi
	subl	$1, %edi
	js	L821
	movl	20(%ecx), %edx
	testl	%edx, %edx
	je	L822
	movl	(%edx,%edi,4), %edi
L818:
	cmpb	$0, 6(%eax)
	jne	L820
	movl	32(%ecx), %edx
	leal	36(%esp), %ebp
	movl	$60, %ecx
	movl	%ebp, %eax
	addl	$16, %edx
	call	_luaO_chunkid
	movl	%esi, 16(%esp)
	movl	%edi, 12(%esp)
	movl	%ebp, 8(%esp)
	movl	%ebx, (%esp)
	movl	$LC42, 4(%esp)
	call	_luaO_pushfstring
	movl	%ebx, %eax
	call	_luaG_errormsg
	addl	$108, %esp
	.cfi_remember_state
	.cfi_def_cfa_offset 20
	popl	%ebx
	.cfi_restore 3
	.cfi_def_cfa_offset 16
	popl	%esi
	.cfi_restore 6
	.cfi_def_cfa_offset 12
	popl	%edi
	.cfi_restore 7
	.cfi_def_cfa_offset 8
	popl	%ebp
	.cfi_restore 5
	.cfi_def_cfa_offset 4
	ret
	.p2align 4,,10
L820:
	.cfi_restore_state
	movl	32, %eax
	ud2
	.p2align 4,,10
L822:
	xorl	%edi, %edi
	jmp	L818
L821:
	orl	$-1, %edi
	jmp	L818
	.cfi_endproc
LFE189:
	.section	.text.unlikely,"x"
LCOLDE43:
	.text
LHOTE43:
	.section .rdata,"dr"
	.align 4
LC44:
	.ascii "memory allocation error: block too big\0"
	.section	.text.unlikely,"x"
LCOLDB45:
	.text
LHOTB45:
	.p2align 4,,15
	.def	_luaD_reallocCI;	.scl	3;	.type	32;	.endef
_luaD_reallocCI:
LFB94:
	.cfi_startproc
	pushl	%ebp
	.cfi_def_cfa_offset 8
	.cfi_offset 5, -8
	pushl	%edi
	.cfi_def_cfa_offset 12
	.cfi_offset 7, -12
	pushl	%esi
	.cfi_def_cfa_offset 16
	.cfi_offset 6, -16
	pushl	%ebx
	.cfi_def_cfa_offset 20
	.cfi_offset 3, -20
	movl	%eax, %ebx
	movl	%edx, %esi
	subl	$28, %esp
	.cfi_def_cfa_offset 48
	movl	40(%eax), %ebp
	leal	1(%edx), %eax
	cmpl	$178956970, %eax
	jbe	L830
	leal	(%esi,%esi,2), %edi
	movl	$LC44, 4(%esp)
	movl	%ebx, (%esp)
	call	_luaG_runerror
	sall	$3, %edi
	xorl	%eax, %eax
L828:
	movl	%eax, 40(%ebx)
	movl	%eax, %edx
	leal	-24(%eax,%edi), %eax
	movl	%esi, 48(%ebx)
	subl	%ebp, %edx
	addl	%edx, 20(%ebx)
	movl	%eax, 36(%ebx)
	addl	$28, %esp
	.cfi_remember_state
	.cfi_def_cfa_offset 20
	popl	%ebx
	.cfi_restore 3
	.cfi_def_cfa_offset 16
	popl	%esi
	.cfi_restore 6
	.cfi_def_cfa_offset 12
	popl	%edi
	.cfi_restore 7
	.cfi_def_cfa_offset 8
	popl	%ebp
	.cfi_restore 5
	.cfi_def_cfa_offset 4
	ret
	.p2align 4,,10
L830:
	.cfi_restore_state
	movl	48(%ebx), %eax
	leal	(%edx,%edx,2), %edi
	movl	%ebp, %edx
	sall	$3, %edi
	leal	(%eax,%eax,2), %ecx
	movl	%edi, (%esp)
	movl	%ebx, %eax
	sall	$3, %ecx
	call	_luaM_realloc_
	jmp	L828
	.cfi_endproc
LFE94:
	.section	.text.unlikely,"x"
LCOLDE45:
	.text
LHOTE45:
	.section .rdata,"dr"
LC46:
	.ascii "not enough memory\0"
LC47:
	.ascii "error in error handling\0"
	.section	.text.unlikely,"x"
LCOLDB48:
	.text
LHOTB48:
	.p2align 4,,15
	.def	_luaD_throw;	.scl	3;	.type	32;	.endef
_luaD_throw:
LFB90:
	.cfi_startproc
	pushl	%edi
	.cfi_def_cfa_offset 8
	.cfi_offset 7, -8
	pushl	%esi
	.cfi_def_cfa_offset 12
	.cfi_offset 6, -12
	movl	%edx, %esi
	pushl	%ebx
	.cfi_def_cfa_offset 16
	.cfi_offset 3, -16
	movl	%eax, %ebx
	subl	$16, %esp
	.cfi_def_cfa_offset 32
	movl	112(%eax), %eax
	testl	%eax, %eax
	je	L832
	movl	%edx, 68(%eax)
	addl	$4, %eax
	movl	$1, 4(%esp)
	movl	%eax, (%esp)
	call	_longjmp
L832:
	movl	16(%ebx), %eax
	movb	%dl, 6(%ebx)
	cmpl	$0, 88(%eax)
	je	L833
	movl	40(%ebx), %eax
	movl	(%eax), %edx
	movl	%eax, 20(%ebx)
	movl	%ebx, %eax
	movl	%edx, 12(%ebx)
	call	_luaF_close
	cmpl	$4, %esi
	movl	12(%ebx), %edi
	je	L835
	jg	L836
	cmpl	$2, %esi
	jl	L834
	movl	8(%ebx), %ecx
	movl	-16(%ecx), %eax
	movl	-12(%ecx), %edx
	movl	%eax, (%edi)
	movl	%edx, 4(%edi)
	movl	-8(%ecx), %eax
	movl	%eax, 8(%edi)
L834:
	addl	$16, %edi
	movzwl	54(%ebx), %eax
	cmpl	$20000, 48(%ebx)
	movl	%edi, 8(%ebx)
	movb	$1, 57(%ebx)
	movw	%ax, 52(%ebx)
	jle	L839
	movl	20(%ebx), %eax
	subl	40(%ebx), %eax
	cmpl	$479975, %eax
	jg	L839
	movl	$20000, %edx
	movl	%ebx, %eax
	call	_luaD_reallocCI
L839:
	movl	16(%ebx), %eax
	movl	$0, 116(%ebx)
	movl	$0, 112(%ebx)
	movl	%ebx, (%esp)
	call	*88(%eax)
L833:
	movl	$1, (%esp)
	call	_exit
L835:
	movl	$17, %ecx
	movl	$LC46, %edx
	movl	%ebx, %eax
	call	_luaS_newlstr
	movl	$4, 8(%edi)
	movl	%eax, (%edi)
	jmp	L834
L836:
	cmpl	$5, %esi
	jne	L834
	movl	$23, %ecx
	movl	$LC47, %edx
	movl	%ebx, %eax
	call	_luaS_newlstr
	movl	$4, 8(%edi)
	movl	%eax, (%edi)
	jmp	L834
	.cfi_endproc
LFE90:
	.section	.text.unlikely,"x"
LCOLDE48:
	.text
LHOTE48:
	.section	.text.unlikely,"x"
LCOLDB49:
	.text
LHOTB49:
	.p2align 4,,15
	.def	_luaM_realloc_;	.scl	3;	.type	32;	.endef
_luaM_realloc_:
LFB64:
	.cfi_startproc
	pushl	%ebp
	.cfi_def_cfa_offset 8
	.cfi_offset 5, -8
	pushl	%edi
	.cfi_def_cfa_offset 12
	.cfi_offset 7, -12
	movl	%eax, %edi
	pushl	%esi
	.cfi_def_cfa_offset 16
	.cfi_offset 6, -16
	pushl	%ebx
	.cfi_def_cfa_offset 20
	.cfi_offset 3, -20
	movl	%ecx, %ebp
	subl	$28, %esp
	.cfi_def_cfa_offset 48
	movl	16(%eax), %esi
	movl	48(%esp), %ebx
	movl	%ecx, 8(%esp)
	movl	%edx, 4(%esp)
	movl	%ebx, 12(%esp)
	movl	16(%esi), %eax
	movl	%eax, (%esp)
	call	*12(%esi)
	testl	%eax, %eax
	jne	L843
	testl	%ebx, %ebx
	je	L843
	movl	$4, %edx
	movl	%edi, %eax
	call	_luaD_throw
	.p2align 4,,10
L843:
	addl	68(%esi), %ebx
	subl	%ebp, %ebx
	movl	%ebx, 68(%esi)
	addl	$28, %esp
	.cfi_def_cfa_offset 20
	popl	%ebx
	.cfi_restore 3
	.cfi_def_cfa_offset 16
	popl	%esi
	.cfi_restore 6
	.cfi_def_cfa_offset 12
	popl	%edi
	.cfi_restore 7
	.cfi_def_cfa_offset 8
	popl	%ebp
	.cfi_restore 5
	.cfi_def_cfa_offset 4
	ret
	.cfi_endproc
LFE64:
	.section	.text.unlikely,"x"
LCOLDE49:
	.text
LHOTE49:
	.section	.text.unlikely,"x"
LCOLDB50:
	.text
LHOTB50:
	.p2align 4,,15
	.def	_luaM_realloc_.constprop.162;	.scl	3;	.type	32;	.endef
_luaM_realloc_.constprop.162:
LFB677:
	.cfi_startproc
	pushl	%esi
	.cfi_def_cfa_offset 8
	.cfi_offset 6, -8
	pushl	%ebx
	.cfi_def_cfa_offset 12
	.cfi_offset 3, -12
	movl	%ecx, %esi
	subl	$20, %esp
	.cfi_def_cfa_offset 32
	movl	16(%eax), %ebx
	movl	$0, 12(%esp)
	movl	%ecx, 8(%esp)
	movl	%edx, 4(%esp)
	movl	16(%ebx), %eax
	movl	%eax, (%esp)
	call	*12(%ebx)
	subl	%esi, 68(%ebx)
	addl	$20, %esp
	.cfi_def_cfa_offset 12
	popl	%ebx
	.cfi_restore 3
	.cfi_def_cfa_offset 8
	popl	%esi
	.cfi_restore 6
	.cfi_def_cfa_offset 4
	ret
	.cfi_endproc
LFE677:
	.section	.text.unlikely,"x"
LCOLDE50:
	.text
LHOTE50:
	.section	.text.unlikely,"x"
LCOLDB51:
	.text
LHOTB51:
	.p2align 4,,15
	.def	_luaS_resize;	.scl	3;	.type	32;	.endef
_luaS_resize:
LFB105:
	.cfi_startproc
	movl	16(%eax), %ecx
	cmpb	$2, 21(%ecx)
	je	L873
	pushl	%ebp
	.cfi_def_cfa_offset 8
	.cfi_offset 5, -8
	pushl	%edi
	.cfi_def_cfa_offset 12
	.cfi_offset 7, -12
	pushl	%esi
	.cfi_def_cfa_offset 16
	.cfi_offset 6, -16
	pushl	%ebx
	.cfi_def_cfa_offset 20
	.cfi_offset 3, -20
	movl	%eax, %ebx
	subl	$44, %esp
	.cfi_def_cfa_offset 64
	movl	%eax, 28(%esp)
	leal	1(%edx), %eax
	movl	%edx, 24(%esp)
	cmpl	$1073741823, %eax
	jbe	L875
	movl	%ebx, (%esp)
	movl	$LC44, 4(%esp)
	xorl	%ebx, %ebx
	call	_luaG_runerror
L856:
	movl	28(%esp), %eax
	movl	16(%eax), %esi
	movl	24(%esp), %eax
	testl	%eax, %eax
	jle	L860
	movl	24(%esp), %eax
	movl	$0, 4(%esp)
	movl	%ebx, (%esp)
	sall	$2, %eax
	movl	%eax, 8(%esp)
	call	_memset
L860:
	movl	8(%esi), %ecx
	testl	%ecx, %ecx
	jle	L876
	movl	24(%esp), %eax
	movl	(%esi), %edx
	xorl	%ebp, %ebp
	leal	-1(%eax), %edi
	.p2align 4,,10
L864:
	movl	(%edx,%ebp,4), %eax
	testl	%eax, %eax
	je	L862
	movl	%esi, 20(%esp)
	.p2align 4,,10
L863:
	movl	8(%eax), %edx
	movl	(%eax), %ecx
	andl	%edi, %edx
	testl	%ecx, %ecx
	leal	(%ebx,%edx,4), %edx
	movl	(%edx), %esi
	movl	%esi, (%eax)
	movl	%eax, (%edx)
	movl	%ecx, %eax
	jne	L863
	movl	20(%esp), %esi
	movl	(%esi), %edx
	movl	8(%esi), %ecx
L862:
	addl	$1, %ebp
	cmpl	%ecx, %ebp
	jl	L864
L861:
	movl	28(%esp), %eax
	sall	$2, %ecx
	call	_luaM_realloc_.constprop.162
	movl	24(%esp), %eax
	movl	%ebx, (%esi)
	movl	%eax, 8(%esi)
	addl	$44, %esp
	.cfi_def_cfa_offset 20
	popl	%ebx
	.cfi_restore 3
	.cfi_def_cfa_offset 16
	popl	%esi
	.cfi_restore 6
	.cfi_def_cfa_offset 12
	popl	%edi
	.cfi_restore 7
	.cfi_def_cfa_offset 8
	popl	%ebp
	.cfi_restore 5
	.cfi_def_cfa_offset 4
L873:
	rep ret
L875:
	.cfi_def_cfa_offset 64
	.cfi_offset 3, -20
	.cfi_offset 5, -8
	.cfi_offset 6, -16
	.cfi_offset 7, -12
	leal	0(,%edx,4), %eax
	xorl	%ecx, %ecx
	xorl	%edx, %edx
	movl	%eax, (%esp)
	movl	%ebx, %eax
	call	_luaM_realloc_
	movl	%eax, %ebx
	jmp	L856
L876:
	movl	(%esi), %edx
	jmp	L861
	.cfi_endproc
LFE105:
	.section	.text.unlikely,"x"
LCOLDE51:
	.text
LHOTE51:
	.section	.text.unlikely,"x"
LCOLDB52:
	.text
LHOTB52:
	.p2align 4,,15
	.def	_luaS_newlstr;	.scl	3;	.type	32;	.endef
_luaS_newlstr:
LFB107:
	.cfi_startproc
	pushl	%ebp
	.cfi_def_cfa_offset 8
	.cfi_offset 5, -8
	movl	%ecx, %ebp
	pushl	%edi
	.cfi_def_cfa_offset 12
	.cfi_offset 7, -12
	shrl	$5, %ebp
	pushl	%esi
	.cfi_def_cfa_offset 16
	.cfi_offset 6, -16
	pushl	%ebx
	.cfi_def_cfa_offset 20
	.cfi_offset 3, -20
	addl	$1, %ebp
	movl	%edx, %edi
	movl	%ecx, %esi
	subl	$44, %esp
	.cfi_def_cfa_offset 64
	cmpl	%ebp, %ecx
	movl	%eax, 20(%esp)
	jb	L885
	movl	%ecx, %ebx
	.p2align 4,,10
L879:
	movl	%ebx, %edx
	movl	%ebx, %eax
	shrl	$2, %eax
	sall	$5, %edx
	addl	%eax, %edx
	movzbl	-1(%edi,%ecx), %eax
	subl	%ebp, %ecx
	addl	%edx, %eax
	xorl	%eax, %ebx
	cmpl	%ecx, %ebp
	jbe	L879
	movl	20(%esp), %eax
L878:
	movl	16(%eax), %eax
	movl	%eax, %ecx
	movl	%eax, 28(%esp)
	movl	8(%eax), %eax
	movl	(%ecx), %edx
	movl	%eax, 24(%esp)
	subl	$1, %eax
	andl	%ebx, %eax
	movl	(%edx,%eax,4), %ebp
	testl	%ebp, %ebp
	jne	L883
	jmp	L880
	.p2align 4,,10
L881:
	movl	0(%ebp), %ebp
	testl	%ebp, %ebp
	je	L880
L883:
	cmpl	12(%ebp), %esi
	jne	L881
	leal	16(%ebp), %eax
	movl	%esi, 8(%esp)
	movl	%edi, (%esp)
	movl	%eax, 4(%esp)
	call	_memcmp
	testl	%eax, %eax
	jne	L881
	movl	28(%esp), %eax
	movzbl	5(%ebp), %ebx
	movzbl	20(%eax), %ecx
	movl	%ebp, %eax
	movl	%ebx, %esi
	andl	$3, %esi
	movl	%esi, %edx
	xorl	$3, %ecx
	testb	%dl, %cl
	je	L882
	xorl	$3, %ebx
	movb	%bl, 5(%ebp)
	addl	$44, %esp
	.cfi_remember_state
	.cfi_def_cfa_offset 20
	popl	%ebx
	.cfi_restore 3
	.cfi_def_cfa_offset 16
	popl	%esi
	.cfi_restore 6
	.cfi_def_cfa_offset 12
	popl	%edi
	.cfi_restore 7
	.cfi_def_cfa_offset 8
	popl	%ebp
	.cfi_restore 5
	.cfi_def_cfa_offset 4
	ret
	.p2align 4,,10
L880:
	.cfi_restore_state
	leal	1(%esi), %eax
	cmpl	$-19, %eax
	ja	L901
L884:
	leal	17(%esi), %eax
	xorl	%edx, %edx
	xorl	%ecx, %ecx
	movl	%eax, (%esp)
	movl	20(%esp), %eax
	call	_luaM_realloc_
	movl	%esi, 12(%eax)
	movl	%ebx, 8(%eax)
	movl	%eax, %ebp
	movl	20(%esp), %eax
	movl	16(%eax), %eax
	movzbl	20(%eax), %eax
	movb	$4, 4(%ebp)
	movb	$0, 6(%ebp)
	andl	$3, %eax
	movb	%al, 5(%ebp)
	leal	16(%ebp), %eax
	movl	%esi, 8(%esp)
	movl	%edi, 4(%esp)
	movl	%eax, (%esp)
	call	_memcpy
	movl	20(%esp), %edi
	movb	$0, 16(%ebp,%esi)
	movl	16(%edi), %eax
	movl	8(%eax), %esi
	leal	-1(%esi), %edx
	andl	%edx, %ebx
	movl	(%eax), %edx
	movl	(%edx,%ebx,4), %edx
	movl	%edx, 0(%ebp)
	movl	(%eax), %edx
	movl	4(%eax), %esi
	movl	%ebp, (%edx,%ebx,4)
	leal	1(%esi), %edx
	movl	%edx, 4(%eax)
	movl	8(%eax), %eax
	cmpl	%eax, %edx
	jbe	L887
	cmpl	$1073741822, %eax
	jg	L887
	leal	(%eax,%eax), %edx
	movl	%edi, %eax
	call	_luaS_resize
	addl	$44, %esp
	.cfi_remember_state
	.cfi_def_cfa_offset 20
	movl	%ebp, %eax
	popl	%ebx
	.cfi_restore 3
	.cfi_def_cfa_offset 16
	popl	%esi
	.cfi_restore 6
	.cfi_def_cfa_offset 12
	popl	%edi
	.cfi_restore 7
	.cfi_def_cfa_offset 8
	popl	%ebp
	.cfi_restore 5
	.cfi_def_cfa_offset 4
	ret
	.p2align 4,,10
L887:
	.cfi_restore_state
	movl	%ebp, %eax
L882:
	addl	$44, %esp
	.cfi_remember_state
	.cfi_def_cfa_offset 20
	popl	%ebx
	.cfi_restore 3
	.cfi_def_cfa_offset 16
	popl	%esi
	.cfi_restore 6
	.cfi_def_cfa_offset 12
	popl	%edi
	.cfi_restore 7
	.cfi_def_cfa_offset 8
	popl	%ebp
	.cfi_restore 5
	.cfi_def_cfa_offset 4
	ret
	.p2align 4,,10
L901:
	.cfi_restore_state
	movl	20(%esp), %eax
	movl	$LC44, 4(%esp)
	movl	%eax, (%esp)
	call	_luaG_runerror
	jmp	L884
L885:
	movl	%ecx, %ebx
	jmp	L878
	.cfi_endproc
LFE107:
	.section	.text.unlikely,"x"
LCOLDE52:
	.text
LHOTE52:
	.section	.text.unlikely,"x"
LCOLDB53:
	.text
LHOTB53:
	.p2align 4,,15
	.def	_luaD_seterrorobj;	.scl	3;	.type	32;	.endef
_luaD_seterrorobj:
LFB87:
	.cfi_startproc
	pushl	%esi
	.cfi_def_cfa_offset 8
	.cfi_offset 6, -8
	pushl	%ebx
	.cfi_def_cfa_offset 12
	.cfi_offset 3, -12
	movl	%eax, %esi
	movl	%ecx, %ebx
	subl	$4, %esp
	.cfi_def_cfa_offset 16
	cmpl	$4, %edx
	je	L904
	jg	L905
	cmpl	$2, %edx
	jl	L903
	movl	8(%eax), %ecx
	movl	-16(%ecx), %eax
	movl	-12(%ecx), %edx
	movl	%eax, (%ebx)
	movl	%edx, 4(%ebx)
	movl	-8(%ecx), %eax
	movl	%eax, 8(%ebx)
L903:
	addl	$16, %ebx
	movl	%ebx, 8(%esi)
	addl	$4, %esp
	.cfi_remember_state
	.cfi_def_cfa_offset 12
	popl	%ebx
	.cfi_restore 3
	.cfi_def_cfa_offset 8
	popl	%esi
	.cfi_restore 6
	.cfi_def_cfa_offset 4
	ret
	.p2align 4,,10
L905:
	.cfi_restore_state
	cmpl	$5, %edx
	jne	L903
	movl	$23, %ecx
	movl	$LC47, %edx
	addl	$16, %ebx
	call	_luaS_newlstr
	movl	$4, -8(%ebx)
	movl	%eax, -16(%ebx)
	movl	%ebx, 8(%esi)
	addl	$4, %esp
	.cfi_remember_state
	.cfi_def_cfa_offset 12
	popl	%ebx
	.cfi_restore 3
	.cfi_def_cfa_offset 8
	popl	%esi
	.cfi_restore 6
	.cfi_def_cfa_offset 4
	ret
	.p2align 4,,10
L904:
	.cfi_restore_state
	movl	$17, %ecx
	movl	$LC46, %edx
	addl	$16, %ebx
	call	_luaS_newlstr
	movl	$4, -8(%ebx)
	movl	%eax, -16(%ebx)
	movl	%ebx, 8(%esi)
	addl	$4, %esp
	.cfi_def_cfa_offset 12
	popl	%ebx
	.cfi_restore 3
	.cfi_def_cfa_offset 8
	popl	%esi
	.cfi_restore 6
	.cfi_def_cfa_offset 4
	ret
	.cfi_endproc
LFE87:
	.section	.text.unlikely,"x"
LCOLDE53:
	.text
LHOTE53:
	.section .rdata,"dr"
LC54:
	.ascii "%.14g\0"
	.section	.text.unlikely,"x"
LCOLDB55:
	.text
LHOTB55:
	.p2align 4,,15
	.def	_luaV_tostring.part.52;	.scl	3;	.type	32;	.endef
_luaV_tostring.part.52:
LFB616:
	.cfi_startproc
	pushl	%edi
	.cfi_def_cfa_offset 8
	.cfi_offset 7, -8
	pushl	%esi
	.cfi_def_cfa_offset 12
	.cfi_offset 6, -12
	movl	%eax, %esi
	pushl	%ebx
	.cfi_def_cfa_offset 16
	.cfi_offset 3, -16
	movl	%edx, %ebx
	subl	$48, %esp
	.cfi_def_cfa_offset 64
	fldl	(%edx)
	leal	16(%esp), %edi
	movl	$LC54, 4(%esp)
	fstpl	8(%esp)
	movl	%edi, (%esp)
	call	_sprintf
	movl	%edi, %ecx
L911:
	movl	(%ecx), %edx
	addl	$4, %ecx
	leal	-16843009(%edx), %eax
	notl	%edx
	andl	%edx, %eax
	andl	$-2139062144, %eax
	je	L911
	movl	%eax, %edx
	shrl	$16, %edx
	testl	$32896, %eax
	cmove	%edx, %eax
	leal	2(%ecx), %edx
	cmove	%edx, %ecx
	movl	%eax, %edx
	addb	%al, %dl
	movl	%edi, %edx
	movl	%esi, %eax
	sbbl	$3, %ecx
	subl	%edi, %ecx
	call	_luaS_newlstr
	movl	$4, 8(%ebx)
	movl	%eax, (%ebx)
	addl	$48, %esp
	.cfi_def_cfa_offset 16
	popl	%ebx
	.cfi_restore 3
	.cfi_def_cfa_offset 12
	movl	$1, %eax
	popl	%esi
	.cfi_restore 6
	.cfi_def_cfa_offset 8
	popl	%edi
	.cfi_restore 7
	.cfi_def_cfa_offset 4
	ret
	.cfi_endproc
LFE616:
	.section	.text.unlikely,"x"
LCOLDE55:
	.text
LHOTE55:
	.section	.text.unlikely,"x"
LCOLDB56:
	.text
LHOTB56:
	.p2align 4,,15
	.def	_lua_objlen;	.scl	3;	.type	32;	.endef
_lua_objlen:
LFB373:
	.cfi_startproc
	pushl	%esi
	.cfi_def_cfa_offset 8
	.cfi_offset 6, -8
	pushl	%ebx
	.cfi_def_cfa_offset 12
	.cfi_offset 3, -12
	movl	%eax, %esi
	subl	$4, %esp
	.cfi_def_cfa_offset 16
	call	_index2adr
	movl	%eax, %ebx
	movl	8(%eax), %eax
	cmpl	$4, %eax
	je	L926
	jle	L927
	cmpl	$5, %eax
	je	L921
	cmpl	$7, %eax
	jne	L924
	movl	(%ebx), %eax
	movl	16(%eax), %eax
	addl	$4, %esp
	.cfi_remember_state
	.cfi_def_cfa_offset 12
	popl	%ebx
	.cfi_restore 3
	.cfi_def_cfa_offset 8
	popl	%esi
	.cfi_restore 6
	.cfi_def_cfa_offset 4
	ret
	.p2align 4,,10
L921:
	.cfi_restore_state
	movl	(%ebx), %eax
	addl	$4, %esp
	.cfi_remember_state
	.cfi_def_cfa_offset 12
	popl	%ebx
	.cfi_restore 3
	.cfi_def_cfa_offset 8
	popl	%esi
	.cfi_restore 6
	.cfi_def_cfa_offset 4
	jmp	_luaH_getn
	.p2align 4,,10
L927:
	.cfi_restore_state
	cmpl	$3, %eax
	jne	L924
	movl	%ebx, %edx
	movl	%esi, %eax
	call	_luaV_tostring.part.52
	testl	%eax, %eax
	je	L924
L926:
	movl	(%ebx), %eax
	movl	12(%eax), %eax
	addl	$4, %esp
	.cfi_remember_state
	.cfi_def_cfa_offset 12
	popl	%ebx
	.cfi_restore 3
	.cfi_def_cfa_offset 8
	popl	%esi
	.cfi_restore 6
	.cfi_def_cfa_offset 4
	ret
	.p2align 4,,10
L924:
	.cfi_restore_state
	addl	$4, %esp
	.cfi_def_cfa_offset 12
	xorl	%eax, %eax
	popl	%ebx
	.cfi_restore 3
	.cfi_def_cfa_offset 8
	popl	%esi
	.cfi_restore 6
	.cfi_def_cfa_offset 4
	ret
	.cfi_endproc
LFE373:
	.section	.text.unlikely,"x"
LCOLDE56:
	.text
LHOTE56:
	.section	.text.unlikely,"x"
LCOLDB57:
	.text
LHOTB57:
	.p2align 4,,15
	.def	_luaF_close;	.scl	3;	.type	32;	.endef
_luaF_close:
LFB83:
	.cfi_startproc
	pushl	%ebp
	.cfi_def_cfa_offset 8
	.cfi_offset 5, -8
	pushl	%edi
	.cfi_def_cfa_offset 12
	.cfi_offset 7, -12
	pushl	%esi
	.cfi_def_cfa_offset 16
	.cfi_offset 6, -16
	pushl	%ebx
	.cfi_def_cfa_offset 20
	.cfi_offset 3, -20
	movl	%edx, %esi
	movl	%eax, %ebx
	subl	$12, %esp
	.cfi_def_cfa_offset 32
	movl	16(%eax), %edi
	.p2align 4,,10
L929:
	movl	104(%ebx), %ebp
	testl	%ebp, %ebp
	je	L928
L946:
	movl	8(%ebp), %ecx
	cmpl	%esi, %ecx
	jb	L928
	movl	0(%ebp), %eax
	movl	%eax, 104(%ebx)
	movzbl	20(%edi), %eax
	xorl	$3, %eax
	andb	5(%ebp), %al
	testb	$3, %al
	je	L930
	leal	16(%ebp), %eax
	cmpl	%eax, %ecx
	je	L931
	movl	16(%ebp), %edx
	movl	20(%ebp), %eax
	movl	%edx, 16(%eax)
	movl	16(%ebp), %edx
	movl	%eax, 20(%edx)
L931:
	movl	%ebp, %edx
	movl	$32, %ecx
	movl	%ebx, %eax
	call	_luaM_realloc_.constprop.162
	movl	104(%ebx), %ebp
	testl	%ebp, %ebp
	jne	L946
L928:
	addl	$12, %esp
	.cfi_remember_state
	.cfi_def_cfa_offset 20
	popl	%ebx
	.cfi_restore 3
	.cfi_def_cfa_offset 16
	popl	%esi
	.cfi_restore 6
	.cfi_def_cfa_offset 12
	popl	%edi
	.cfi_restore 7
	.cfi_def_cfa_offset 8
	popl	%ebp
	.cfi_restore 5
	.cfi_def_cfa_offset 4
	ret
	.p2align 4,,10
L930:
	.cfi_restore_state
	movl	20(%ebp), %eax
	movl	16(%ebp), %edx
	movl	%edx, 16(%eax)
	movl	16(%ebp), %edx
	movl	%eax, 20(%edx)
	movl	4(%ecx), %edx
	movl	(%ecx), %eax
	movl	%edx, 20(%ebp)
	movl	16(%ebx), %edx
	movl	%eax, 16(%ebp)
	leal	16(%ebp), %eax
	movl	8(%ecx), %ecx
	movl	%eax, 8(%ebp)
	movl	28(%edx), %eax
	movl	%ecx, 24(%ebp)
	movl	%eax, 0(%ebp)
	movl	%ebp, 28(%edx)
	movzbl	5(%ebp), %eax
	testb	$7, %al
	jne	L929
	cmpb	$1, 21(%edx)
	je	L947
	movzbl	20(%edx), %edx
	andl	$-8, %eax
	andl	$3, %edx
	orl	%edx, %eax
	movb	%al, 5(%ebp)
	jmp	L929
	.p2align 4,,10
L947:
	orl	$4, %eax
	cmpl	$3, %ecx
	movb	%al, 5(%ebp)
	jle	L929
	movl	16(%ebp), %edx
	testb	$3, 5(%edx)
	je	L929
	movl	16(%ebx), %ecx
	cmpb	$1, 21(%ecx)
	je	L948
	movzbl	20(%ecx), %edx
	andl	$-8, %eax
	andl	$3, %edx
	orl	%edx, %eax
	movb	%al, 5(%ebp)
	jmp	L929
L948:
	movl	%ecx, %eax
	call	_reallymarkobject
	jmp	L929
	.cfi_endproc
LFE83:
	.section	.text.unlikely,"x"
LCOLDE57:
	.text
LHOTE57:
	.section	.text.unlikely,"x"
LCOLDB58:
	.text
LHOTB58:
	.p2align 4,,15
	.def	_freeobj;	.scl	3;	.type	32;	.endef
_freeobj:
LFB148:
	.cfi_startproc
	pushl	%esi
	.cfi_def_cfa_offset 8
	.cfi_offset 6, -8
	pushl	%ebx
	.cfi_def_cfa_offset 12
	.cfi_offset 3, -12
	subl	$4, %esp
	.cfi_def_cfa_offset 16
	movzbl	4(%edx), %esi
	leal	-4(%esi), %ecx
	cmpb	$6, %cl
	ja	L949
	movzbl	%cl, %ecx
	movl	%edx, %ebx
	movl	%eax, %esi
	jmp	*L952(,%ecx,4)
	.section .rdata,"dr"
	.align 4
L952:
	.long	L951
	.long	L953
	.long	L954
	.long	L955
	.long	L956
	.long	L957
	.long	L958
	.text
	.p2align 4,,10
L957:
	movl	44(%edx), %eax
	movl	12(%edx), %edx
	leal	0(,%eax,4), %ecx
	movl	%esi, %eax
	call	_luaM_realloc_.constprop.162
	movl	52(%ebx), %eax
	movl	16(%ebx), %edx
	leal	0(,%eax,4), %ecx
	movl	%esi, %eax
	call	_luaM_realloc_.constprop.162
	movl	40(%ebx), %ecx
	movl	8(%ebx), %edx
	movl	%esi, %eax
	sall	$4, %ecx
	call	_luaM_realloc_.constprop.162
	movl	48(%ebx), %eax
	movl	20(%ebx), %edx
	leal	0(,%eax,4), %ecx
	movl	%esi, %eax
	call	_luaM_realloc_.constprop.162
	movl	56(%ebx), %eax
	movl	24(%ebx), %edx
	leal	(%eax,%eax,2), %ecx
	movl	%esi, %eax
	sall	$2, %ecx
	call	_luaM_realloc_.constprop.162
	movl	36(%ebx), %eax
	movl	28(%ebx), %edx
	leal	0(,%eax,4), %ecx
	movl	%esi, %eax
	call	_luaM_realloc_.constprop.162
	movl	$76, %ecx
L967:
	addl	$4, %esp
	.cfi_remember_state
	.cfi_def_cfa_offset 12
	movl	%ebx, %edx
	movl	%esi, %eax
	popl	%ebx
	.cfi_restore 3
	.cfi_def_cfa_offset 8
	popl	%esi
	.cfi_restore 6
	.cfi_def_cfa_offset 4
	jmp	_luaM_realloc_.constprop.162
	.p2align 4,,10
L958:
	.cfi_restore_state
	leal	16(%edx), %eax
	cmpl	%eax, 8(%edx)
	je	L968
	movl	20(%edx), %eax
	movl	16(%edx), %edx
	movl	%edx, 16(%eax)
	movl	16(%ebx), %edx
	movl	%eax, 20(%edx)
L968:
	addl	$4, %esp
	.cfi_remember_state
	.cfi_def_cfa_offset 12
	movl	%ebx, %edx
	movl	%esi, %eax
	popl	%ebx
	.cfi_restore 3
	.cfi_def_cfa_offset 8
	popl	%esi
	.cfi_restore 6
	.cfi_def_cfa_offset 4
	movl	$32, %ecx
	jmp	_luaM_realloc_.constprop.162
	.p2align 4,,10
L951:
	.cfi_restore_state
	movl	16(%eax), %eax
	subl	$1, 4(%eax)
	movl	12(%edx), %eax
	addl	$4, %esp
	.cfi_remember_state
	.cfi_def_cfa_offset 12
	movl	%ebx, %edx
	popl	%ebx
	.cfi_restore 3
	.cfi_def_cfa_offset 8
	leal	17(%eax), %ecx
	movl	%esi, %eax
	popl	%esi
	.cfi_restore 6
	.cfi_def_cfa_offset 4
	jmp	_luaM_realloc_.constprop.162
	.p2align 4,,10
L953:
	.cfi_restore_state
	movl	16(%edx), %edx
	cmpl	$_dummynode_, %edx
	je	L962
	movzbl	7(%ebx), %ecx
	movl	$32, %eax
	sall	%cl, %eax
	movl	%eax, %ecx
	movl	%esi, %eax
	call	_luaM_realloc_.constprop.162
L962:
	movl	28(%ebx), %ecx
	movl	12(%ebx), %edx
	movl	%esi, %eax
	sall	$4, %ecx
	call	_luaM_realloc_.constprop.162
	jmp	L968
	.p2align 4,,10
L954:
	cmpb	$0, 6(%edx)
	movzbl	7(%edx), %eax
	jne	L969
	leal	20(,%eax,4), %ecx
	jmp	L967
	.p2align 4,,10
L955:
	movl	16(%edx), %eax
	addl	$4, %esp
	.cfi_remember_state
	.cfi_def_cfa_offset 12
	movl	%ebx, %edx
	popl	%ebx
	.cfi_restore 3
	.cfi_def_cfa_offset 8
	leal	24(%eax), %ecx
	movl	%esi, %eax
	popl	%esi
	.cfi_restore 6
	.cfi_def_cfa_offset 4
	jmp	_luaM_realloc_.constprop.162
	.p2align 4,,10
L956:
	.cfi_restore_state
	movl	32(%edx), %edx
	movl	%ebx, %eax
	call	_luaF_close
	movl	48(%ebx), %eax
	movl	40(%ebx), %edx
	leal	(%eax,%eax,2), %ecx
	movl	%esi, %eax
	sall	$3, %ecx
	call	_luaM_realloc_.constprop.162
	movl	44(%ebx), %ecx
	movl	32(%ebx), %edx
	movl	%esi, %eax
	sall	$4, %ecx
	call	_luaM_realloc_.constprop.162
	addl	$4, %esp
	.cfi_remember_state
	.cfi_def_cfa_offset 12
	movl	%ebx, %edx
	movl	%esi, %eax
	popl	%ebx
	.cfi_restore 3
	.cfi_def_cfa_offset 8
	popl	%esi
	.cfi_restore 6
	.cfi_def_cfa_offset 4
	movl	$120, %ecx
	jmp	_luaM_realloc_.constprop.162
	.p2align 4,,10
L949:
	.cfi_restore_state
	addl	$4, %esp
	.cfi_remember_state
	.cfi_def_cfa_offset 12
	popl	%ebx
	.cfi_restore 3
	.cfi_def_cfa_offset 8
	popl	%esi
	.cfi_restore 6
	.cfi_def_cfa_offset 4
	ret
	.p2align 4,,10
L969:
	.cfi_restore_state
	sall	$4, %eax
	leal	24(%eax), %ecx
	jmp	L967
	.cfi_endproc
LFE148:
	.section	.text.unlikely,"x"
LCOLDE58:
	.text
LHOTE58:
	.section	.text.unlikely,"x"
LCOLDB59:
	.text
LHOTB59:
	.p2align 4,,15
	.def	_sweeplist.constprop.163;	.scl	3;	.type	32;	.endef
_sweeplist.constprop.163:
LFB676:
	.cfi_startproc
	pushl	%ebp
	.cfi_def_cfa_offset 8
	.cfi_offset 5, -8
	pushl	%edi
	.cfi_def_cfa_offset 12
	.cfi_offset 7, -12
	movl	%edx, %edi
	pushl	%esi
	.cfi_def_cfa_offset 16
	.cfi_offset 6, -16
	pushl	%ebx
	.cfi_def_cfa_offset 20
	.cfi_offset 3, -20
	movl	$-2, %esi
	subl	$28, %esp
	.cfi_def_cfa_offset 48
	movl	16(%eax), %ebp
	movl	%eax, 12(%esp)
	movzbl	20(%ebp), %eax
	xorl	$3, %eax
	movb	%al, 11(%esp)
	.p2align 4,,10
L971:
	movl	(%edi), %ebx
	testl	%ebx, %ebx
	je	L979
L982:
	subl	$1, %esi
	je	L979
	cmpb	$8, 4(%ebx)
	je	L981
L972:
	movzbl	5(%ebx), %eax
	movl	%eax, %edx
	xorl	$3, %edx
	testb	%dl, 11(%esp)
	je	L973
	movzbl	20(%ebp), %edx
	andl	$-8, %eax
	movl	%ebx, %edi
	andl	$3, %edx
	orl	%edx, %eax
	movb	%al, 5(%ebx)
	movl	(%edi), %ebx
	testl	%ebx, %ebx
	jne	L982
L979:
	addl	$28, %esp
	.cfi_remember_state
	.cfi_def_cfa_offset 20
	movl	%edi, %eax
	popl	%ebx
	.cfi_restore 3
	.cfi_def_cfa_offset 16
	popl	%esi
	.cfi_restore 6
	.cfi_def_cfa_offset 12
	popl	%edi
	.cfi_restore 7
	.cfi_def_cfa_offset 8
	popl	%ebp
	.cfi_restore 5
	.cfi_def_cfa_offset 4
	ret
	.p2align 4,,10
L973:
	.cfi_restore_state
	movl	(%ebx), %eax
	movl	%eax, (%edi)
	cmpl	28(%ebp), %ebx
	je	L983
L975:
	movl	12(%esp), %eax
	movl	%ebx, %edx
	call	_freeobj
	jmp	L971
	.p2align 4,,10
L981:
	movl	12(%esp), %eax
	leal	104(%ebx), %edx
	call	_sweeplist.constprop.163
	jmp	L972
	.p2align 4,,10
L983:
	movl	(%ebx), %eax
	movl	%eax, 28(%ebp)
	jmp	L975
	.cfi_endproc
LFE676:
	.section	.text.unlikely,"x"
LCOLDE59:
	.text
LHOTE59:
	.section	.text.unlikely,"x"
LCOLDB60:
	.text
LHOTB60:
	.p2align 4,,15
	.def	_close_state;	.scl	3;	.type	32;	.endef
_close_state:
LFB168:
	.cfi_startproc
	pushl	%ebp
	.cfi_def_cfa_offset 8
	.cfi_offset 5, -8
	pushl	%edi
	.cfi_def_cfa_offset 12
	.cfi_offset 7, -12
	pushl	%esi
	.cfi_def_cfa_offset 16
	.cfi_offset 6, -16
	pushl	%ebx
	.cfi_def_cfa_offset 20
	.cfi_offset 3, -20
	movl	%eax, %esi
	xorl	%ebx, %ebx
	subl	$28, %esp
	.cfi_def_cfa_offset 48
	movl	32(%eax), %edx
	movl	16(%eax), %ebp
	call	_luaF_close
	movl	16(%esi), %edi
	movl	%esi, %eax
	leal	28(%edi), %edx
	movb	$67, 20(%edi)
	call	_sweeplist.constprop.163
	movl	8(%edi), %eax
	testl	%eax, %eax
	jle	L987
	.p2align 4,,10
L988:
	movl	(%edi), %eax
	leal	(%eax,%ebx,4), %edx
	movl	%esi, %eax
	addl	$1, %ebx
	call	_sweeplist.constprop.163
	cmpl	8(%edi), %ebx
	jl	L988
L987:
	movl	16(%esi), %eax
	movl	8(%eax), %ecx
	movl	(%eax), %edx
	movl	%esi, %eax
	sall	$2, %ecx
	call	_luaM_realloc_.constprop.162
	movl	60(%ebp), %ecx
	movl	52(%ebp), %edx
	movl	%esi, %eax
	call	_luaM_realloc_.constprop.162
	movl	%eax, 52(%ebp)
	movl	48(%esi), %eax
	movl	40(%esi), %edx
	movl	$0, 60(%ebp)
	leal	(%eax,%eax,2), %ecx
	movl	%esi, %eax
	sall	$3, %ecx
	call	_luaM_realloc_.constprop.162
	movl	44(%esi), %ecx
	movl	32(%esi), %edx
	movl	%esi, %eax
	sall	$4, %ecx
	call	_luaM_realloc_.constprop.162
	movl	%esi, 4(%esp)
	movl	$0, 12(%esp)
	movl	$376, 8(%esp)
	movl	16(%ebp), %eax
	movl	%eax, (%esp)
	call	*12(%ebp)
	addl	$28, %esp
	.cfi_def_cfa_offset 20
	popl	%ebx
	.cfi_restore 3
	.cfi_def_cfa_offset 16
	popl	%esi
	.cfi_restore 6
	.cfi_def_cfa_offset 12
	popl	%edi
	.cfi_restore 7
	.cfi_def_cfa_offset 8
	popl	%ebp
	.cfi_restore 5
	.cfi_def_cfa_offset 4
	ret
	.cfi_endproc
LFE168:
	.section	.text.unlikely,"x"
LCOLDE60:
	.text
LHOTE60:
	.section	.text.unlikely,"x"
LCOLDB61:
	.text
LHOTB61:
	.p2align 4,,15
	.def	_setarrayvector.isra.53;	.scl	3;	.type	32;	.endef
_setarrayvector.isra.53:
LFB617:
	.cfi_startproc
	pushl	%edi
	.cfi_def_cfa_offset 8
	.cfi_offset 7, -8
	pushl	%esi
	.cfi_def_cfa_offset 12
	.cfi_offset 6, -12
	movl	%edx, %edi
	pushl	%ebx
	.cfi_def_cfa_offset 16
	.cfi_offset 3, -16
	movl	%ecx, %esi
	subl	$16, %esp
	.cfi_def_cfa_offset 32
	movl	32(%esp), %ebx
	leal	1(%ebx), %edx
	cmpl	$268435455, %edx
	ja	L994
	movl	%ebx, %edx
	movl	(%ecx), %ecx
	sall	$4, %edx
	movl	%edx, (%esp)
	movl	(%edi), %edx
	sall	$4, %ecx
	call	_luaM_realloc_
L995:
	movl	(%esi), %edx
	movl	%eax, (%edi)
	cmpl	%edx, %ebx
	jle	L998
	movl	%ebx, %ecx
	sall	$4, %edx
	sall	$4, %ecx
	addl	%eax, %edx
	addl	%ecx, %eax
	.p2align 4,,10
L997:
	movl	$0, 8(%edx)
	addl	$16, %edx
	cmpl	%eax, %edx
	jne	L997
L998:
	movl	%ebx, (%esi)
	addl	$16, %esp
	.cfi_remember_state
	.cfi_def_cfa_offset 16
	popl	%ebx
	.cfi_restore 3
	.cfi_def_cfa_offset 12
	popl	%esi
	.cfi_restore 6
	.cfi_def_cfa_offset 8
	popl	%edi
	.cfi_restore 7
	.cfi_def_cfa_offset 4
	ret
	.p2align 4,,10
L994:
	.cfi_restore_state
	movl	%eax, (%esp)
	movl	$LC44, 4(%esp)
	call	_luaG_runerror
	xorl	%eax, %eax
	jmp	L995
	.cfi_endproc
LFE617:
	.section	.text.unlikely,"x"
LCOLDE61:
	.text
LHOTE61:
	.section	.text.unlikely,"x"
LCOLDB62:
	.text
LHOTB62:
	.p2align 4,,15
	.def	_luaD_reallocstack;	.scl	3;	.type	32;	.endef
_luaD_reallocstack:
LFB93:
	.cfi_startproc
	pushl	%ebp
	.cfi_def_cfa_offset 8
	.cfi_offset 5, -8
	pushl	%edi
	.cfi_def_cfa_offset 12
	.cfi_offset 7, -12
	leal	6(%edx), %ebp
	pushl	%esi
	.cfi_def_cfa_offset 16
	.cfi_offset 6, -16
	pushl	%ebx
	.cfi_def_cfa_offset 20
	.cfi_offset 3, -20
	movl	%eax, %esi
	movl	%edx, %edi
	subl	$28, %esp
	.cfi_def_cfa_offset 48
	movl	32(%eax), %ebx
	leal	7(%edx), %eax
	cmpl	$268435455, %eax
	jbe	L1016
	movl	$LC44, 4(%esp)
	movl	%esi, (%esp)
	call	_luaG_runerror
	xorl	%eax, %eax
L1004:
	movl	%eax, %edx
	sall	$4, %edi
	movl	%eax, 32(%esi)
	subl	%ebx, %edx
	addl	%edx, 8(%esi)
	movl	104(%esi), %edx
	addl	%eax, %edi
	movl	%ebp, 44(%esi)
	movl	%edi, 28(%esi)
	testl	%edx, %edx
	je	L1005
	.p2align 4,,10
L1007:
	subl	%ebx, %eax
	addl	%eax, 8(%edx)
	movl	(%edx), %edx
	movl	32(%esi), %eax
	testl	%edx, %edx
	jne	L1007
L1005:
	movl	40(%esi), %edx
	movl	20(%esi), %edi
	cmpl	%edi, %edx
	ja	L1010
	.p2align 4,,10
L1012:
	movl	%eax, %ecx
	subl	%ebx, %ecx
	addl	%ecx, 8(%edx)
	movl	%eax, %ecx
	subl	%ebx, %ecx
	addl	%ecx, (%edx)
	movl	%eax, %ecx
	subl	%ebx, %ecx
	addl	%ecx, 4(%edx)
	addl	$24, %edx
	cmpl	%edi, %edx
	jbe	L1012
L1010:
	subl	%ebx, %eax
	addl	%eax, 12(%esi)
	addl	$28, %esp
	.cfi_remember_state
	.cfi_def_cfa_offset 20
	popl	%ebx
	.cfi_restore 3
	.cfi_def_cfa_offset 16
	popl	%esi
	.cfi_restore 6
	.cfi_def_cfa_offset 12
	popl	%edi
	.cfi_restore 7
	.cfi_def_cfa_offset 8
	popl	%ebp
	.cfi_restore 5
	.cfi_def_cfa_offset 4
	ret
	.p2align 4,,10
L1016:
	.cfi_restore_state
	movl	44(%esi), %ecx
	movl	%ebp, %eax
	movl	%ebx, %edx
	sall	$4, %eax
	movl	%eax, (%esp)
	movl	%esi, %eax
	sall	$4, %ecx
	call	_luaM_realloc_
	jmp	L1004
	.cfi_endproc
LFE93:
	.section	.text.unlikely,"x"
LCOLDE62:
	.text
LHOTE62:
	.section	.text.unlikely,"x"
LCOLDB63:
	.text
LHOTB63:
	.p2align 4,,15
	.def	_propagatemark;	.scl	3;	.type	32;	.endef
_propagatemark:
LFB144:
	.cfi_startproc
	pushl	%ebp
	.cfi_def_cfa_offset 8
	.cfi_offset 5, -8
	pushl	%edi
	.cfi_def_cfa_offset 12
	.cfi_offset 7, -12
	movl	%eax, %ebp
	pushl	%esi
	.cfi_def_cfa_offset 16
	.cfi_offset 6, -16
	pushl	%ebx
	.cfi_def_cfa_offset 20
	.cfi_offset 3, -20
	subl	$44, %esp
	.cfi_def_cfa_offset 64
	movl	36(%eax), %ebx
	movzbl	4(%ebx), %eax
	orb	$4, 5(%ebx)
	cmpb	$6, %al
	je	L1019
	jbe	L1216
	cmpb	$8, %al
	je	L1022
	cmpb	$9, %al
	jne	L1101
	movl	68(%ebx), %eax
	movl	%eax, 36(%ebp)
	movl	32(%ebx), %eax
	testl	%eax, %eax
	je	L1082
	andb	$-4, 5(%eax)
L1082:
	movl	40(%ebx), %ecx
	xorl	%esi, %esi
	testl	%ecx, %ecx
	jg	L1161
	.p2align 4,,10
L1088:
	movl	36(%ebx), %ecx
	xorl	%eax, %eax
	testl	%ecx, %ecx
	jle	L1085
	.p2align 4,,10
L1160:
	movl	28(%ebx), %edx
	movl	(%edx,%eax,4), %edx
	testl	%edx, %edx
	je	L1091
	andb	$-4, 5(%edx)
	movl	36(%ebx), %ecx
L1091:
	addl	$1, %eax
	cmpl	%ecx, %eax
	jl	L1160
L1085:
	movl	52(%ebx), %edi
	xorl	%esi, %esi
	testl	%edi, %edi
	jg	L1159
	.p2align 4,,10
L1090:
	movl	56(%ebx), %ecx
	testl	%ecx, %ecx
	jle	L1095
	xorl	%edx, %edx
	.p2align 4,,10
L1097:
	movl	24(%ebx), %esi
	leal	(%edx,%edx,2), %eax
	leal	(%esi,%eax,4), %eax
	movl	(%eax), %eax
	testl	%eax, %eax
	je	L1096
	andb	$-4, 5(%eax)
	movl	56(%ebx), %ecx
L1096:
	addl	$1, %edx
	cmpl	%ecx, %edx
	jl	L1097
	movl	52(%ebx), %edi
L1095:
	movl	48(%ebx), %eax
	addl	44(%ebx), %eax
	movl	36(%ebx), %edx
	leal	19(%eax,%edx), %eax
	movl	40(%ebx), %edx
	addl	$44, %esp
	.cfi_remember_state
	.cfi_def_cfa_offset 20
	popl	%ebx
	.cfi_restore 3
	.cfi_def_cfa_offset 16
	popl	%esi
	.cfi_restore 6
	.cfi_def_cfa_offset 12
	leal	(%eax,%edx,4), %eax
	addl	%eax, %edi
	leal	(%ecx,%ecx,2), %eax
	addl	%eax, %edi
	leal	0(,%edi,4), %eax
	popl	%edi
	.cfi_restore 7
	.cfi_def_cfa_offset 8
	popl	%ebp
	.cfi_restore 5
	.cfi_def_cfa_offset 4
	ret
	.p2align 4,,10
L1022:
	.cfi_restore_state
	movl	108(%ebx), %eax
	movl	%eax, 36(%ebp)
	movl	40(%ebp), %eax
	movl	%eax, 108(%ebx)
	movl	%ebx, 40(%ebp)
	andb	$-5, 5(%ebx)
	cmpl	$3, 80(%ebx)
	jle	L1069
	movl	72(%ebx), %edx
	testb	$3, 5(%edx)
	jne	L1217
L1069:
	movl	40(%ebx), %eax
	movl	20(%ebx), %ecx
	movl	8(%ebx), %edx
	cmpl	%ecx, %eax
	movl	%eax, 24(%esp)
	movl	%edx, %edi
	ja	L1070
	.p2align 4,,10
L1071:
	movl	8(%eax), %esi
	cmpl	%esi, %edi
	cmovb	%esi, %edi
	addl	$24, %eax
	cmpl	%ecx, %eax
	jbe	L1071
L1070:
	movl	32(%ebx), %esi
	cmpl	%esi, %edx
	jbe	L1106
	movl	%edx, %eax
	jmp	L1074
	.p2align 4,,10
L1073:
	addl	$16, %esi
	cmpl	%eax, %esi
	jnb	L1218
L1074:
	cmpl	$3, 8(%esi)
	jle	L1073
	movl	(%esi), %edx
	testb	$3, 5(%edx)
	je	L1073
	movl	%ebp, %eax
	addl	$16, %esi
	call	_reallymarkobject
	movl	8(%ebx), %eax
	cmpl	%eax, %esi
	jb	L1074
	.p2align 4,,10
L1218:
	movl	20(%ebx), %ecx
	movl	40(%ebx), %eax
	movl	32(%ebx), %ebp
	jmp	L1209
	.p2align 4,,10
L1158:
	movl	$0, 8(%esi)
	addl	$16, %esi
L1209:
	cmpl	%edi, %esi
	jbe	L1158
	movl	48(%ebx), %esi
	cmpl	$20000, %esi
	jg	L1219
	subl	%eax, %ecx
	sarl	$3, %ecx
	imull	$-1431655765, %ecx, %eax
	sall	$2, %eax
	cmpl	%eax, %esi
	jle	L1081
	cmpl	$16, %esi
	jg	L1220
L1081:
	subl	%ebp, %edi
	movl	44(%ebx), %edx
	sarl	$4, %edi
	leal	0(,%edi,4), %eax
	cmpl	%edx, %eax
	jge	L1210
	cmpl	$90, %edx
	jle	L1210
	sarl	%edx
	movl	%ebx, %eax
	call	_luaD_reallocstack
	movl	44(%ebx), %edx
L1210:
	movl	48(%ebx), %esi
L1080:
	leal	(%esi,%esi,2), %eax
	addl	$44, %esp
	.cfi_remember_state
	.cfi_def_cfa_offset 20
	sall	$4, %edx
	popl	%ebx
	.cfi_restore 3
	.cfi_def_cfa_offset 16
	leal	120(%edx,%eax,8), %eax
	popl	%esi
	.cfi_restore 6
	.cfi_def_cfa_offset 12
	popl	%edi
	.cfi_restore 7
	.cfi_def_cfa_offset 8
	popl	%ebp
	.cfi_restore 5
	.cfi_def_cfa_offset 4
	ret
	.p2align 4,,10
L1221:
	.cfi_restore_state
	movl	%ebp, %eax
	call	_reallymarkobject
	movl	40(%ebx), %ecx
	.p2align 4,,10
L1086:
	addl	$1, %esi
	cmpl	%ecx, %esi
	jge	L1088
L1161:
	movl	%esi, %eax
	sall	$4, %eax
	addl	8(%ebx), %eax
	cmpl	$3, 8(%eax)
	jle	L1086
	movl	(%eax), %edx
	testb	$3, 5(%edx)
	je	L1086
	jmp	L1221
	.p2align 4,,10
L1222:
	movl	%ebp, %eax
	call	_reallymarkobject
	movl	52(%ebx), %edi
L1093:
	addl	$1, %esi
	cmpl	%edi, %esi
	jge	L1090
L1159:
	movl	16(%ebx), %eax
	movl	(%eax,%esi,4), %edx
	testl	%edx, %edx
	je	L1093
	testb	$3, 5(%edx)
	je	L1093
	jmp	L1222
	.p2align 4,,10
L1216:
	cmpb	$5, %al
	jne	L1101
	movl	24(%ebx), %eax
	movl	%eax, 36(%ebp)
	movl	8(%ebx), %eax
	testl	%eax, %eax
	je	L1102
	testb	$3, 5(%eax)
	jne	L1223
L1025:
	testb	$8, 6(%eax)
	je	L1224
L1102:
	movl	$0, 24(%esp)
L1024:
	movl	28(%ebx), %eax
	leal	-1(%eax), %esi
	movl	%esi, %edi
	sall	$4, %edi
	jmp	L1034
	.p2align 4,,10
L1226:
	movl	%ebp, %eax
	call	_reallymarkobject
	.p2align 4,,10
L1035:
	subl	$1, %esi
	subl	$16, %edi
L1034:
	cmpl	$-1, %esi
	je	L1225
	movl	12(%ebx), %eax
	addl	%edi, %eax
	cmpl	$3, 8(%eax)
	jle	L1035
	movl	(%eax), %edx
	testb	$3, 5(%edx)
	je	L1035
	jmp	L1226
	.p2align 4,,10
L1101:
	addl	$44, %esp
	.cfi_remember_state
	.cfi_def_cfa_offset 20
	xorl	%eax, %eax
	popl	%ebx
	.cfi_restore 3
	.cfi_def_cfa_offset 16
	popl	%esi
	.cfi_restore 6
	.cfi_def_cfa_offset 12
	popl	%edi
	.cfi_restore 7
	.cfi_def_cfa_offset 8
	popl	%ebp
	.cfi_restore 5
	.cfi_def_cfa_offset 4
	ret
	.p2align 4,,10
L1019:
	.cfi_restore_state
	movl	8(%ebx), %eax
	movl	%eax, 36(%ebp)
	movl	12(%ebx), %edx
	testb	$3, 5(%edx)
	jne	L1227
L1059:
	cmpb	$0, 6(%ebx)
	je	L1060
	movzbl	7(%ebx), %ecx
	testb	%cl, %cl
	je	L1103
	leal	32(%ebx), %esi
	xorl	%edi, %edi
	jmp	L1063
	.p2align 4,,10
L1062:
	addl	$1, %edi
	movzbl	%cl, %eax
	addl	$16, %esi
	cmpl	%eax, %edi
	jge	L1064
L1063:
	cmpl	$3, (%esi)
	jle	L1062
	movl	-8(%esi), %edx
	testb	$3, 5(%edx)
	je	L1062
	movl	%ebp, %eax
	call	_reallymarkobject
	movzbl	7(%ebx), %ecx
	jmp	L1062
	.p2align 4,,10
L1060:
	movl	16(%ebx), %edx
	testb	$3, 5(%edx)
	jne	L1228
	xorl	%eax, %eax
	cmpb	$0, 7(%ebx)
	je	L1068
L1098:
	xorl	%esi, %esi
	jmp	L1067
	.p2align 4,,10
L1066:
	movzbl	7(%ebx), %eax
	addl	$1, %esi
	cmpl	%eax, %esi
	jge	L1064
L1067:
	movl	20(%ebx,%esi,4), %edx
	testb	$3, 5(%edx)
	je	L1066
	movl	%ebp, %eax
	call	_reallymarkobject
	jmp	L1066
	.p2align 4,,10
L1227:
	movl	%ebp, %eax
	call	_reallymarkobject
	jmp	L1059
	.p2align 4,,10
L1068:
	addl	$44, %esp
	.cfi_remember_state
	.cfi_def_cfa_offset 20
	leal	20(,%eax,4), %eax
	popl	%ebx
	.cfi_restore 3
	.cfi_def_cfa_offset 16
	popl	%esi
	.cfi_restore 6
	.cfi_def_cfa_offset 12
	popl	%edi
	.cfi_restore 7
	.cfi_def_cfa_offset 8
	popl	%ebp
	.cfi_restore 5
	.cfi_def_cfa_offset 4
	ret
	.p2align 4,,10
L1228:
	.cfi_restore_state
	movl	%ebp, %eax
	call	_reallymarkobject
	cmpb	$0, 7(%ebx)
	jne	L1098
	xorl	%eax, %eax
	.p2align 4,,10
L1064:
	cmpb	$0, 6(%ebx)
	je	L1068
L1061:
	addl	$44, %esp
	.cfi_remember_state
	.cfi_def_cfa_offset 20
	sall	$4, %eax
	popl	%ebx
	.cfi_restore 3
	.cfi_def_cfa_offset 16
	addl	$24, %eax
	popl	%esi
	.cfi_restore 6
	.cfi_def_cfa_offset 12
	popl	%edi
	.cfi_restore 7
	.cfi_def_cfa_offset 8
	popl	%ebp
	.cfi_restore 5
	.cfi_def_cfa_offset 4
	ret
	.p2align 4,,10
L1219:
	.cfi_restore_state
	movl	44(%ebx), %edx
	jmp	L1080
	.p2align 4,,10
L1225:
	movzbl	7(%ebx), %ecx
	movl	$1, %eax
	sall	%cl, %eax
	movl	%eax, %edi
	movl	24(%esp), %eax
	testl	%eax, %eax
	jne	L1229
	movl	%edi, %eax
	leal	-1(%edi), %edi
	xorl	%ecx, %ecx
	movl	%ebp, 24(%esp)
	movl	%ecx, %ebp
	movl	%ebx, %ecx
	sall	$5, %edi
	movl	%eax, %ebx
	jmp	L1038
	.p2align 4,,10
L1052:
	cmpl	$3, 24(%esi)
	jle	L1055
	movl	16(%esi), %edx
	testb	$3, 5(%edx)
	jne	L1230
L1055:
	cmpl	$3, 8(%esi)
	jle	L1054
	movl	(%esi), %edx
	testb	$3, 5(%edx)
	jne	L1231
	.p2align 4,,10
L1054:
	addl	$1, %ebp
	subl	$32, %edi
L1038:
	cmpl	%ebp, %ebx
	je	L1232
	movl	16(%ecx), %esi
	addl	%edi, %esi
	movl	8(%esi), %eax
	testl	%eax, %eax
	jne	L1052
	cmpl	$3, 24(%esi)
	jle	L1054
	movl	$11, 24(%esi)
	jmp	L1054
	.p2align 4,,10
L1224:
	movl	200(%ebp), %ecx
	movl	$3, %edx
	call	_luaT_gettm
	testl	%eax, %eax
	je	L1102
	cmpl	$4, 8(%eax)
	jne	L1102
	movl	(%eax), %edx
	movl	$107, 4(%esp)
	leal	16(%edx), %esi
	movl	%esi, (%esp)
	call	_strchr
	testl	%eax, %eax
	movl	$118, 4(%esp)
	movl	%esi, (%esp)
	setne	28(%esp)
	movzbl	28(%esp), %ecx
	movl	%eax, %edi
	movl	%ecx, 24(%esp)
	call	_strchr
	testl	%eax, %eax
	movl	%eax, %ecx
	setne	%dl
	cmpb	$0, 28(%esp)
	movzbl	%dl, %eax
	jne	L1028
	testb	%dl, %dl
	jne	L1028
L1030:
	testl	%ecx, %ecx
	je	L1024
	movzbl	7(%ebx), %ecx
	movl	$1, %esi
	sall	%cl, %esi
	testl	%edi, %edi
	movl	%esi, %eax
	je	L1032
	leal	-1(%esi), %edx
	sall	$5, %edx
	jmp	L1045
	.p2align 4,,10
L1233:
	movl	16(%ebx), %ecx
	addl	%edx, %ecx
	movl	8(%ecx), %esi
	testl	%esi, %esi
	jne	L1044
	cmpl	$3, 24(%ecx)
	jle	L1044
	movl	$11, 24(%ecx)
L1044:
	subl	$32, %edx
L1045:
	subl	$1, %eax
	cmpl	$-1, %eax
	jne	L1233
L1058:
	andb	$-5, 5(%ebx)
L1031:
	movl	28(%ebx), %eax
	movzbl	7(%ebx), %ecx
	addl	$44, %esp
	.cfi_remember_state
	.cfi_def_cfa_offset 20
	popl	%ebx
	.cfi_restore 3
	.cfi_def_cfa_offset 16
	popl	%esi
	.cfi_restore 6
	.cfi_def_cfa_offset 12
	addl	$2, %eax
	sall	$4, %eax
	movl	%eax, %edi
	movl	$32, %eax
	sall	%cl, %eax
	addl	%edi, %eax
	popl	%edi
	.cfi_restore 7
	.cfi_def_cfa_offset 8
	popl	%ebp
	.cfi_restore 5
	.cfi_def_cfa_offset 4
	ret
	.p2align 4,,10
L1220:
	.cfi_restore_state
	movl	%esi, %edx
	movl	%ebx, %eax
	sarl	%edx
	call	_luaD_reallocCI
	jmp	L1081
	.p2align 4,,10
L1229:
	leal	-1(%edi), %esi
	movl	%edi, %eax
	movl	%ebp, %ecx
	xorl	%edi, %edi
	movl	%eax, %ebp
	sall	$5, %esi
	jmp	L1042
	.p2align 4,,10
L1235:
	cmpl	$3, %edx
	jle	L1041
	movl	(%eax), %edx
	testb	$3, 5(%edx)
	jne	L1234
	.p2align 4,,10
L1041:
	addl	$1, %edi
	subl	$32, %esi
L1042:
	cmpl	%edi, %ebp
	je	L1039
	movl	16(%ebx), %eax
	addl	%esi, %eax
	movl	8(%eax), %edx
	testl	%edx, %edx
	jne	L1235
	cmpl	$3, 24(%eax)
	jle	L1041
	movl	$11, 24(%eax)
	jmp	L1041
	.p2align 4,,10
L1217:
	movl	%ebp, %eax
	call	_reallymarkobject
	jmp	L1069
L1106:
	movl	%esi, %ebp
	movl	24(%esp), %eax
	jmp	L1209
	.p2align 4,,10
L1039:
	movl	24(%esp), %edi
	testl	%edi, %edi
	je	L1031
	jmp	L1058
	.p2align 4,,10
L1223:
	movl	%eax, %edx
	movl	%ebp, %eax
	call	_reallymarkobject
	movl	8(%ebx), %eax
	testl	%eax, %eax
	jne	L1025
	jmp	L1102
	.p2align 4,,10
L1032:
	leal	-1(%esi), %edi
	xorl	%ecx, %ecx
	sall	$5, %edi
	jmp	L1051
	.p2align 4,,10
L1237:
	cmpl	$3, 24(%eax)
	jle	L1050
	movl	16(%eax), %edx
	testb	$3, 5(%edx)
	jne	L1236
	.p2align 4,,10
L1050:
	addl	$1, %ecx
	subl	$32, %edi
L1051:
	cmpl	%ecx, %esi
	je	L1058
	movl	16(%ebx), %eax
	addl	%edi, %eax
	movl	8(%eax), %edx
	testl	%edx, %edx
	jne	L1237
	cmpl	$3, 24(%eax)
	jle	L1050
	movl	$11, 24(%eax)
	jmp	L1050
	.p2align 4,,10
L1232:
	movl	%ecx, %ebx
	jmp	L1031
	.p2align 4,,10
L1028:
	movl	24(%esp), %esi
	sall	$4, %eax
	sall	$3, %esi
	orl	%esi, %eax
	movzbl	5(%ebx), %esi
	andl	$-25, %esi
	orl	%esi, %eax
	testb	%dl, 28(%esp)
	movb	%al, 5(%ebx)
	movl	44(%ebp), %eax
	movl	%eax, 24(%ebx)
	movl	%ebx, 44(%ebp)
	jne	L1058
	jmp	L1030
L1234:
	movl	%ecx, %eax
	movl	%ecx, 28(%esp)
	call	_reallymarkobject
	movl	28(%esp), %ecx
	jmp	L1041
L1230:
	movl	24(%esp), %eax
	movl	%ecx, 28(%esp)
	call	_reallymarkobject
	movl	28(%esp), %ecx
	jmp	L1055
L1231:
	movl	24(%esp), %eax
	movl	%ecx, 28(%esp)
	call	_reallymarkobject
	movl	28(%esp), %ecx
	jmp	L1054
L1236:
	movl	%ebp, %eax
	movl	%ecx, 24(%esp)
	call	_reallymarkobject
	movl	24(%esp), %ecx
	jmp	L1050
L1103:
	xorl	%eax, %eax
	jmp	L1061
	.cfi_endproc
LFE144:
	.section	.text.unlikely,"x"
LCOLDE63:
	.text
LHOTE63:
	.section	.text.unlikely,"x"
LCOLDB64:
	.text
LHOTB64:
	.p2align 4,,15
	.def	_luaD_growstack;	.scl	3;	.type	32;	.endef
_luaD_growstack:
LFB95:
	.cfi_startproc
	movl	44(%eax), %ecx
	cmpl	%edx, %ecx
	jge	L1240
	addl	%ecx, %edx
	jmp	_luaD_reallocstack
	.p2align 4,,10
L1240:
	leal	(%ecx,%ecx), %edx
	jmp	_luaD_reallocstack
	.cfi_endproc
LFE95:
	.section	.text.unlikely,"x"
LCOLDE64:
	.text
LHOTE64:
	.section	.text.unlikely,"x"
LCOLDB65:
	.text
LHOTB65:
	.p2align 4,,15
	.def	_callTMres.isra.49;	.scl	3;	.type	32;	.endef
_callTMres.isra.49:
LFB613:
	.cfi_startproc
	pushl	%ebp
	.cfi_def_cfa_offset 8
	.cfi_offset 5, -8
	pushl	%edi
	.cfi_def_cfa_offset 12
	.cfi_offset 7, -12
	pushl	%esi
	.cfi_def_cfa_offset 16
	.cfi_offset 6, -16
	pushl	%ebx
	.cfi_def_cfa_offset 20
	.cfi_offset 3, -20
	movl	%edx, %esi
	movl	%eax, %ebx
	subl	$12, %esp
	.cfi_def_cfa_offset 32
	movl	8(%eax), %edx
	movl	4(%ecx), %ebp
	subl	32(%eax), %esi
	movl	(%ecx), %edi
	movl	%ebp, 4(%edx)
	movl	8(%ecx), %eax
	movl	%edi, (%edx)
	movl	%eax, 8(%edx)
	movl	32(%esp), %eax
	movl	(%eax), %edi
	movl	4(%eax), %ebp
	movl	36(%esp), %eax
	movl	%edi, 16(%edx)
	movl	%ebp, 20(%edx)
	movl	(%eax), %eax
	movl	%eax, 24(%edx)
	movl	40(%esp), %eax
	movl	(%eax), %edi
	movl	4(%eax), %ebp
	movl	44(%esp), %eax
	movl	%edi, 32(%edx)
	movl	%ebp, 36(%edx)
	movl	(%eax), %eax
	movl	%eax, 40(%edx)
	movl	28(%ebx), %eax
	subl	%edx, %eax
	cmpl	$48, %eax
	jg	L1242
	movl	$3, %edx
	movl	%ebx, %eax
	call	_luaD_growstack
	movl	8(%ebx), %edx
L1242:
	leal	48(%edx), %eax
	movl	$1, %ecx
	movl	%eax, 8(%ebx)
	movl	%ebx, %eax
	call	_luaD_call
	movl	8(%ebx), %ecx
	addl	32(%ebx), %esi
	leal	-16(%ecx), %eax
	movl	-12(%ecx), %edx
	movl	%eax, 8(%ebx)
	movl	-16(%ecx), %eax
	movl	%edx, 4(%esi)
	movl	%eax, (%esi)
	movl	-8(%ecx), %eax
	movl	%eax, 8(%esi)
	addl	$12, %esp
	.cfi_def_cfa_offset 20
	popl	%ebx
	.cfi_restore 3
	.cfi_def_cfa_offset 16
	popl	%esi
	.cfi_restore 6
	.cfi_def_cfa_offset 12
	popl	%edi
	.cfi_restore 7
	.cfi_def_cfa_offset 8
	popl	%ebp
	.cfi_restore 5
	.cfi_def_cfa_offset 4
	ret
	.cfi_endproc
LFE613:
	.section	.text.unlikely,"x"
LCOLDE65:
	.text
LHOTE65:
	.section	.text.unlikely,"x"
LCOLDB66:
	.text
LHOTB66:
	.p2align 4,,15
	.def	_call_binTM;	.scl	3;	.type	32;	.endef
_call_binTM:
LFB342:
	.cfi_startproc
	pushl	%ebp
	.cfi_def_cfa_offset 8
	.cfi_offset 5, -8
	pushl	%edi
	.cfi_def_cfa_offset 12
	.cfi_offset 7, -12
	leal	16(%eax), %ebp
	pushl	%esi
	.cfi_def_cfa_offset 16
	.cfi_offset 6, -16
	pushl	%ebx
	.cfi_def_cfa_offset 20
	.cfi_offset 3, -20
	movl	%eax, %esi
	movl	%edx, %ebx
	movl	%ecx, %edi
	subl	$28, %esp
	.cfi_def_cfa_offset 48
	movl	8(%edx), %ecx
	movl	52(%esp), %eax
	movl	%eax, (%esp)
	movl	(%edx), %edx
	movl	%ebp, %eax
	call	_luaT_gettmbyobj.isra.10
	movl	8(%eax), %edx
	movl	%eax, %ecx
	testl	%edx, %edx
	je	L1253
L1245:
	leal	8(%edi), %eax
	movl	48(%esp), %edx
	movl	%edi, 8(%esp)
	movl	%ebx, (%esp)
	movl	%eax, 12(%esp)
	leal	8(%ebx), %eax
	movl	%eax, 4(%esp)
	movl	%esi, %eax
	call	_callTMres.isra.49
	addl	$28, %esp
	.cfi_remember_state
	.cfi_def_cfa_offset 20
	movl	$1, %eax
	popl	%ebx
	.cfi_restore 3
	.cfi_def_cfa_offset 16
	popl	%esi
	.cfi_restore 6
	.cfi_def_cfa_offset 12
	popl	%edi
	.cfi_restore 7
	.cfi_def_cfa_offset 8
	popl	%ebp
	.cfi_restore 5
	.cfi_def_cfa_offset 4
	ret
	.p2align 4,,10
L1253:
	.cfi_restore_state
	movl	52(%esp), %eax
	movl	8(%edi), %ecx
	movl	(%edi), %edx
	movl	%eax, (%esp)
	movl	%ebp, %eax
	call	_luaT_gettmbyobj.isra.10
	movl	%eax, %ecx
	movl	8(%eax), %eax
	testl	%eax, %eax
	jne	L1245
	addl	$28, %esp
	.cfi_def_cfa_offset 20
	popl	%ebx
	.cfi_restore 3
	.cfi_def_cfa_offset 16
	popl	%esi
	.cfi_restore 6
	.cfi_def_cfa_offset 12
	popl	%edi
	.cfi_restore 7
	.cfi_def_cfa_offset 8
	popl	%ebp
	.cfi_restore 5
	.cfi_def_cfa_offset 4
	ret
	.cfi_endproc
LFE342:
	.section	.text.unlikely,"x"
LCOLDE66:
	.text
LHOTE66:
	.section	.text.unlikely,"x"
LCOLDB67:
	.text
LHOTB67:
	.p2align 4,,15
	.def	_call_orderTM;	.scl	3;	.type	32;	.endef
_call_orderTM:
LFB344:
	.cfi_startproc
	pushl	%ebp
	.cfi_def_cfa_offset 8
	.cfi_offset 5, -8
	pushl	%edi
	.cfi_def_cfa_offset 12
	.cfi_offset 7, -12
	movl	%ecx, %edi
	pushl	%esi
	.cfi_def_cfa_offset 16
	.cfi_offset 6, -16
	pushl	%ebx
	.cfi_def_cfa_offset 20
	.cfi_offset 3, -20
	movl	%edx, %ebx
	movl	%eax, %esi
	addl	$16, %eax
	subl	$44, %esp
	.cfi_def_cfa_offset 64
	movl	8(%edx), %ecx
	movl	64(%esp), %edx
	movl	%eax, 28(%esp)
	movl	%edx, (%esp)
	movl	(%ebx), %edx
	call	_luaT_gettmbyobj.isra.10
	movl	8(%eax), %ecx
	testl	%ecx, %ecx
	je	L1257
	movl	64(%esp), %edx
	movl	%eax, %ebp
	movl	8(%edi), %ecx
	movl	28(%esp), %eax
	movl	%edx, (%esp)
	movl	(%edi), %edx
	call	_luaT_gettmbyobj.isra.10
	movl	%eax, %edx
	movl	%ebp, %eax
	call	_luaO_rawequalObj
	testl	%eax, %eax
	je	L1257
	leal	8(%edi), %eax
	movl	8(%esi), %edx
	movl	%edi, 8(%esp)
	movl	%ebx, (%esp)
	movl	%ebp, %ecx
	movl	%eax, 12(%esp)
	leal	8(%ebx), %eax
	movl	%eax, 4(%esp)
	movl	%esi, %eax
	call	_callTMres.isra.49
	movl	8(%esi), %edx
	movl	8(%edx), %eax
	testl	%eax, %eax
	je	L1255
	cmpl	$1, %eax
	je	L1263
	movl	$1, %eax
L1255:
	addl	$44, %esp
	.cfi_remember_state
	.cfi_def_cfa_offset 20
	popl	%ebx
	.cfi_restore 3
	.cfi_def_cfa_offset 16
	popl	%esi
	.cfi_restore 6
	.cfi_def_cfa_offset 12
	popl	%edi
	.cfi_restore 7
	.cfi_def_cfa_offset 8
	popl	%ebp
	.cfi_restore 5
	.cfi_def_cfa_offset 4
	ret
	.p2align 4,,10
L1257:
	.cfi_restore_state
	addl	$44, %esp
	.cfi_remember_state
	.cfi_def_cfa_offset 20
	movl	$-1, %eax
	popl	%ebx
	.cfi_restore 3
	.cfi_def_cfa_offset 16
	popl	%esi
	.cfi_restore 6
	.cfi_def_cfa_offset 12
	popl	%edi
	.cfi_restore 7
	.cfi_def_cfa_offset 8
	popl	%ebp
	.cfi_restore 5
	.cfi_def_cfa_offset 4
	ret
	.p2align 4,,10
L1263:
	.cfi_restore_state
	movl	(%edx), %edx
	xorl	%eax, %eax
	testl	%edx, %edx
	setne	%al
	addl	$44, %esp
	.cfi_def_cfa_offset 20
	popl	%ebx
	.cfi_restore 3
	.cfi_def_cfa_offset 16
	popl	%esi
	.cfi_restore 6
	.cfi_def_cfa_offset 12
	popl	%edi
	.cfi_restore 7
	.cfi_def_cfa_offset 8
	popl	%ebp
	.cfi_restore 5
	.cfi_def_cfa_offset 4
	ret
	.cfi_endproc
LFE344:
	.section	.text.unlikely,"x"
LCOLDE67:
	.text
LHOTE67:
	.section	.text.unlikely,"x"
LCOLDB68:
	.text
LHOTB68:
	.p2align 4,,15
	.def	_pushstr;	.scl	3;	.type	32;	.endef
_pushstr:
LFB70:
	.cfi_startproc
	pushl	%edi
	.cfi_def_cfa_offset 8
	.cfi_offset 7, -8
	pushl	%esi
	.cfi_def_cfa_offset 12
	.cfi_offset 6, -12
	movl	%edx, %edi
	pushl	%ebx
	.cfi_def_cfa_offset 16
	.cfi_offset 3, -16
	movl	%eax, %ebx
	subl	$16, %esp
	.cfi_def_cfa_offset 32
	movl	8(%eax), %esi
	movl	%edx, (%esp)
	call	_strlen
	movl	%edi, %edx
	movl	%eax, %ecx
	movl	%ebx, %eax
	call	_luaS_newlstr
	movl	%eax, (%esi)
	movl	8(%ebx), %eax
	movl	28(%ebx), %edx
	movl	$4, 8(%esi)
	subl	%eax, %edx
	cmpl	$16, %edx
	jg	L1265
	movl	%ebx, %eax
	movl	$1, %edx
	call	_luaD_growstack
	movl	8(%ebx), %eax
L1265:
	addl	$16, %eax
	movl	%eax, 8(%ebx)
	addl	$16, %esp
	.cfi_def_cfa_offset 16
	popl	%ebx
	.cfi_restore 3
	.cfi_def_cfa_offset 12
	popl	%esi
	.cfi_restore 6
	.cfi_def_cfa_offset 8
	popl	%edi
	.cfi_restore 7
	.cfi_def_cfa_offset 4
	ret
	.cfi_endproc
LFE70:
	.section	.text.unlikely,"x"
LCOLDE68:
	.text
LHOTE68:
	.section .rdata,"dr"
LC69:
	.ascii "perform arithmetic on\0"
	.section	.text.unlikely,"x"
LCOLDB70:
	.text
LHOTB70:
	.p2align 4,,15
	.def	_Arith;	.scl	3;	.type	32;	.endef
_Arith:
LFB350:
	.cfi_startproc
	pushl	%ebp
	.cfi_def_cfa_offset 8
	.cfi_offset 5, -8
	pushl	%edi
	.cfi_def_cfa_offset 12
	.cfi_offset 7, -12
	movl	%eax, %ebp
	pushl	%esi
	.cfi_def_cfa_offset 16
	.cfi_offset 6, -16
	pushl	%ebx
	.cfi_def_cfa_offset 20
	.cfi_offset 3, -20
	movl	%edx, %esi
	movl	%ecx, %ebx
	subl	$92, %esp
	.cfi_def_cfa_offset 112
	movl	8(%ecx), %eax
	movl	112(%esp), %edi
	cmpl	$3, %eax
	je	L1268
	cmpl	$4, %eax
	je	L1295
L1269:
	movl	116(%esp), %eax
	movl	%esi, (%esp)
	movl	%edi, %ecx
	movl	%ebx, %edx
	movl	%eax, 4(%esp)
	movl	%ebp, %eax
	call	_call_binTM
	testl	%eax, %eax
	je	L1296
	jmp	L1267
	.p2align 4,,10
L1298:
	fstp	%st(0)
	fstp	%st(0)
L1267:
	addl	$92, %esp
	.cfi_remember_state
	.cfi_def_cfa_offset 20
	popl	%ebx
	.cfi_restore 3
	.cfi_def_cfa_offset 16
	popl	%esi
	.cfi_restore 6
	.cfi_def_cfa_offset 12
	popl	%edi
	.cfi_restore 7
	.cfi_def_cfa_offset 8
	popl	%ebp
	.cfi_restore 5
	.cfi_def_cfa_offset 4
	ret
	.p2align 4,,10
L1295:
	.cfi_restore_state
	leal	32(%esp), %edx
	movl	%ecx, %eax
	call	_luaV_tonumber.part.47
	testl	%eax, %eax
	movl	%eax, %ecx
	je	L1269
L1268:
	movl	8(%edi), %eax
	cmpl	$3, %eax
	je	L1284
	cmpl	$4, %eax
	jne	L1269
	leal	48(%esp), %edx
	movl	%edi, %eax
	movl	%ecx, 16(%esp)
	call	_luaV_tonumber.part.47
	testl	%eax, %eax
	movl	16(%esp), %ecx
	jne	L1270
	jmp	L1269
	.p2align 4,,10
L1284:
	movl	%edi, %eax
L1270:
	fldl	(%ecx)
	fldl	(%eax)
	movl	116(%esp), %eax
	subl	$5, %eax
	cmpl	$6, %eax
	ja	L1298
	jmp	*L1273(,%eax,4)
	.section .rdata,"dr"
	.align 4
L1273:
	.long	L1272
	.long	L1294
	.long	L1275
	.long	L1276
	.long	L1277
	.long	L1278
	.long	L1279
	.text
	.p2align 4,,10
L1277:
	fld	%st(1)
	fstpl	24(%esp)
	fdivr	%st, %st(1)
	fstpl	16(%esp)
	fstpl	(%esp)
	call	_floor
	fldl	16(%esp)
	fmulp	%st, %st(1)
	fldl	24(%esp)
	fxch	%st(1)
L1294:
	fsubrp	%st, %st(1)
	movl	$3, 8(%esi)
	fstpl	(%esi)
	addl	$92, %esp
	.cfi_remember_state
	.cfi_def_cfa_offset 20
	popl	%ebx
	.cfi_restore 3
	.cfi_def_cfa_offset 16
	popl	%esi
	.cfi_restore 6
	.cfi_def_cfa_offset 12
	popl	%edi
	.cfi_restore 7
	.cfi_def_cfa_offset 8
	popl	%ebp
	.cfi_restore 5
	.cfi_def_cfa_offset 4
	ret
	.p2align 4,,10
L1272:
	.cfi_restore_state
	faddp	%st, %st(1)
	movl	$3, 8(%esi)
	fstpl	(%esi)
	jmp	L1267
	.p2align 4,,10
L1279:
	fstp	%st(0)
	fchs
	movl	$3, 8(%esi)
	fstpl	(%esi)
	jmp	L1267
	.p2align 4,,10
L1278:
	fstpl	8(%esp)
	fstpl	(%esp)
	call	_pow
	movl	$3, 8(%esi)
	fstpl	(%esi)
	jmp	L1267
	.p2align 4,,10
L1276:
	fdivrp	%st, %st(1)
	movl	$3, 8(%esi)
	fstpl	(%esi)
	jmp	L1267
	.p2align 4,,10
L1275:
	fmulp	%st, %st(1)
	movl	$3, 8(%esi)
	fstpl	(%esi)
	jmp	L1267
	.p2align 4,,10
L1296:
	movl	8(%ebx), %eax
	cmpl	$3, %eax
	je	L1293
	cmpl	$4, %eax
	je	L1297
L1281:
	movl	_luaT_typenames(,%eax,4), %eax
	movl	$LC69, 8(%esp)
	movl	$LC36, 4(%esp)
	movl	%ebp, (%esp)
	movl	%eax, 12(%esp)
	call	_luaG_runerror
	jmp	L1267
	.p2align 4,,10
L1293:
	movl	8(%edi), %eax
	jmp	L1281
L1297:
	leal	64(%esp), %edx
	movl	%ebx, %eax
	call	_luaV_tonumber.part.47
	testl	%eax, %eax
	jne	L1293
	movl	8(%ebx), %eax
	jmp	L1281
	.cfi_endproc
LFE350:
	.section	.text.unlikely,"x"
LCOLDE70:
	.text
LHOTE70:
	.section .rdata,"dr"
LC71:
	.ascii "concatenate\0"
LC72:
	.ascii "string length overflow\0"
	.section	.text.unlikely,"x"
LCOLDB73:
	.text
LHOTB73:
	.p2align 4,,15
	.def	_luaV_concat;	.scl	3;	.type	32;	.endef
_luaV_concat:
LFB349:
	.cfi_startproc
	pushl	%ebp
	.cfi_def_cfa_offset 8
	.cfi_offset 5, -8
	pushl	%edi
	.cfi_def_cfa_offset 12
	.cfi_offset 7, -12
	pushl	%esi
	.cfi_def_cfa_offset 16
	.cfi_offset 6, -16
	pushl	%ebx
	.cfi_def_cfa_offset 20
	.cfi_offset 3, -20
	subl	$92, %esp
	.cfi_def_cfa_offset 112
	movl	%eax, 24(%esp)
	addl	$16, %eax
	movl	%edx, 16(%esp)
	movl	%ecx, 36(%esp)
	movl	%eax, 44(%esp)
	jmp	L1321
	.p2align 4,,10
L1301:
	movl	20(%esp), %eax
	movl	%ebx, %ecx
	movl	-32(%eax), %edx
	leal	-32(%eax), %edi
	movl	44(%esp), %eax
	movl	$15, (%esp)
	call	_luaT_gettmbyobj.isra.10
	movl	8(%eax), %ecx
	testl	%ecx, %ecx
	je	L1343
L1303:
	movl	20(%esp), %ecx
	movl	%esi, 8(%esp)
	movl	%edi, (%esp)
	movl	%ecx, %edx
	subl	$8, %edx
	movl	%edx, 12(%esp)
	movl	%ecx, %edx
	movl	%eax, %ecx
	movl	24(%esp), %eax
	subl	$24, %edx
	movl	%edx, 4(%esp)
	movl	%edi, %edx
	call	_callTMres.isra.49
	movl	$1, 28(%esp)
L1305:
	movl	28(%esp), %edi
	subl	%edi, 16(%esp)
	movl	16(%esp), %eax
	subl	%edi, 36(%esp)
	cmpl	$1, %eax
	jle	L1344
L1321:
	movl	36(%esp), %eax
	movl	24(%esp), %edi
	addl	$1, %eax
	sall	$4, %eax
	addl	12(%edi), %eax
	movl	-24(%eax), %ebx
	movl	%eax, %ecx
	movl	%eax, 20(%esp)
	leal	-16(%ecx), %esi
	leal	-3(%ebx), %eax
	cmpl	$1, %eax
	ja	L1301
	movl	-8(%ecx), %eax
	cmpl	$4, %eax
	je	L1302
	cmpl	$3, %eax
	leal	-16(%ecx), %esi
	jne	L1301
	movl	%edi, %eax
	movl	%esi, %edx
	call	_luaV_tostring.part.52
	testl	%eax, %eax
	je	L1345
	.p2align 4,,10
L1302:
	movl	20(%esp), %edi
	movl	-16(%edi), %eax
	movl	12(%eax), %ebp
	testl	%ebp, %ebp
	je	L1306
	cmpl	$1, 16(%esp)
	leal	-32(%edi), %ebx
	movl	$1, %esi
	movl	$-3, %edi
	jle	L1346
	.p2align 4,,10
L1332:
	movl	8(%ebx), %eax
	cmpl	$4, %eax
	je	L1311
	cmpl	$3, %eax
	je	L1312
	movl	%esi, %ebx
	sall	$4, %ebx
	negl	%ebx
	movl	%ebx, 40(%esp)
	leal	-1(%esi), %ebx
	movl	%ebx, 28(%esp)
L1308:
	movl	24(%esp), %eax
	movl	16(%eax), %edi
	movl	60(%edi), %ecx
	cmpl	%ecx, %ebp
	jbe	L1347
L1315:
	cmpl	$31, %ebp
	jbe	L1325
	leal	1(%ebp), %eax
	cmpl	$-3, %eax
	jbe	L1348
	movl	24(%esp), %eax
	movl	$LC44, 4(%esp)
	movl	%eax, (%esp)
	call	_luaG_runerror
	xorl	%eax, %eax
L1319:
	movl	%eax, 52(%edi)
	movl	%ebp, 60(%edi)
	movl	%eax, 32(%esp)
L1316:
	movl	20(%esp), %ebp
	sall	$4, %esi
	movl	%ebx, %edi
	subl	%esi, %ebp
	xorl	%esi, %esi
	jmp	L1320
	.p2align 4,,10
L1349:
	subl	$1, %edi
L1320:
	movl	0(%ebp), %eax
	movl	32(%esp), %ecx
	addl	$16, %ebp
	movl	12(%eax), %ebx
	addl	%esi, %ecx
	addl	$16, %eax
	movl	%eax, 4(%esp)
	movl	%ecx, (%esp)
	movl	%ebx, 8(%esp)
	addl	%ebx, %esi
	call	_memcpy
	testl	%edi, %edi
	jne	L1349
	movl	20(%esp), %ebx
	addl	40(%esp), %ebx
	movl	%esi, %ecx
	movl	32(%esp), %edx
	movl	24(%esp), %eax
	call	_luaS_newlstr
	movl	$4, 8(%ebx)
	movl	%eax, (%ebx)
	jmp	L1305
	.p2align 4,,10
L1312:
	fldl	(%ebx)
	leal	48(%esp), %eax
	movl	$LC54, 4(%esp)
	fstpl	8(%esp)
	movl	%eax, (%esp)
	call	_sprintf
	leal	48(%esp), %ecx
L1313:
	movl	(%ecx), %edx
	addl	$4, %ecx
	leal	-16843009(%edx), %eax
	notl	%edx
	andl	%edx, %eax
	andl	$-2139062144, %eax
	je	L1313
	movl	%eax, %edx
	shrl	$16, %edx
	testl	$32896, %eax
	cmove	%edx, %eax
	leal	2(%ecx), %edx
	cmove	%edx, %ecx
	movl	%eax, %edx
	addb	%al, %dl
	leal	48(%esp), %eax
	sbbl	$3, %ecx
	subl	%eax, %ecx
	movl	%eax, %edx
	movl	24(%esp), %eax
	call	_luaS_newlstr
	movl	$4, 8(%ebx)
	movl	%eax, (%ebx)
	.p2align 4,,10
L1311:
	movl	(%ebx), %eax
	movl	%edi, %edx
	subl	%ebp, %edx
	movl	12(%eax), %eax
	cmpl	%edx, %eax
	jnb	L1350
L1309:
	addl	%eax, %ebp
	addl	$1, %esi
	subl	$16, %ebx
	cmpl	%esi, 16(%esp)
	jne	L1332
	movl	16(%esp), %esi
	movl	%esi, %ebx
	leal	-1(%esi), %eax
	sall	$4, %ebx
	negl	%ebx
	movl	%eax, 28(%esp)
	movl	%ebx, 40(%esp)
	movl	%eax, %ebx
	movl	24(%esp), %eax
	movl	16(%eax), %edi
	movl	60(%edi), %ecx
	cmpl	%ecx, %ebp
	ja	L1315
L1347:
	movl	52(%edi), %eax
	movl	%eax, 32(%esp)
	jmp	L1316
	.p2align 4,,10
L1350:
	movl	%eax, 28(%esp)
	movl	24(%esp), %eax
	movl	$LC72, 4(%esp)
	movl	%eax, (%esp)
	call	_luaG_runerror
	movl	28(%esp), %eax
	jmp	L1309
	.p2align 4,,10
L1343:
	movl	20(%esp), %eax
	movl	-16(%eax), %edx
	movl	-8(%eax), %ecx
	movl	44(%esp), %eax
	movl	$15, (%esp)
	call	_luaT_gettmbyobj.isra.10
	movl	8(%eax), %edx
	testl	%edx, %edx
	jne	L1303
	subl	$3, %ebx
	cmpl	$2, %ebx
	cmovnb	%edi, %esi
	movl	8(%esi), %eax
	movl	$LC71, 8(%esp)
	movl	$LC36, 4(%esp)
	movl	_luaT_typenames(,%eax,4), %eax
	movl	%eax, 12(%esp)
	movl	24(%esp), %eax
	movl	%eax, (%esp)
	call	_luaG_runerror
	movl	$1, 28(%esp)
	jmp	L1305
	.p2align 4,,10
L1306:
	cmpl	$3, -24(%edi)
	movl	$1, 28(%esp)
	jne	L1305
	movl	24(%esp), %eax
	movl	%edi, %edx
	subl	$32, %edx
	call	_luaV_tostring.part.52
	jmp	L1305
	.p2align 4,,10
L1344:
	addl	$92, %esp
	.cfi_remember_state
	.cfi_def_cfa_offset 20
	popl	%ebx
	.cfi_restore 3
	.cfi_def_cfa_offset 16
	popl	%esi
	.cfi_restore 6
	.cfi_def_cfa_offset 12
	popl	%edi
	.cfi_restore 7
	.cfi_def_cfa_offset 8
	popl	%ebp
	.cfi_restore 5
	.cfi_def_cfa_offset 4
	ret
	.p2align 4,,10
L1325:
	.cfi_restore_state
	movl	$32, %ebp
L1317:
	movl	52(%edi), %edx
	movl	%ebp, (%esp)
	call	_luaM_realloc_
	jmp	L1319
L1346:
	movl	$0, 28(%esp)
	movl	$-16, 40(%esp)
	xorl	%ebx, %ebx
	jmp	L1308
L1345:
	movl	20(%esp), %eax
	movl	-24(%eax), %ebx
	jmp	L1301
L1348:
	movl	24(%esp), %eax
	jmp	L1317
	.cfi_endproc
LFE349:
	.section	.text.unlikely,"x"
LCOLDE73:
	.text
LHOTE73:
	.section .rdata,"dr"
LC74:
	.ascii "(null)\0"
LC75:
	.ascii "\0"
LC76:
	.ascii "%p\0"
LC77:
	.ascii "%\0"
	.section	.text.unlikely,"x"
LCOLDB78:
	.text
LHOTB78:
	.p2align 4,,15
	.def	_luaO_pushvfstring;	.scl	3;	.type	32;	.endef
_luaO_pushvfstring:
LFB71:
	.cfi_startproc
	pushl	%ebp
	.cfi_def_cfa_offset 8
	.cfi_offset 5, -8
	pushl	%edi
	.cfi_def_cfa_offset 12
	.cfi_offset 7, -12
	movl	%edx, %edi
	pushl	%esi
	.cfi_def_cfa_offset 16
	.cfi_offset 6, -16
	pushl	%ebx
	.cfi_def_cfa_offset 20
	.cfi_offset 3, -20
	movl	%ecx, %esi
	movl	$LC75, %edx
	movl	%eax, %ebx
	subl	$76, %esp
	.cfi_def_cfa_offset 96
	call	_pushstr
	movl	%edi, %edx
	movl	$1, 28(%esp)
	movl	%esi, %edi
	jmp	L1366
	.p2align 4,,10
L1356:
	cmpb	$112, %dl
	je	L1359
	cmpb	$115, %dl
	je	L1360
	cmpb	$102, %dl
	je	L1373
L1354:
	movb	%dl, 41(%esp)
	leal	40(%esp), %edx
	movl	%ebx, %eax
	movb	$37, 40(%esp)
	movb	$0, 42(%esp)
	call	_pushstr
	.p2align 4,,10
L1363:
	addl	$2, 28(%esp)
	leal	2(%esi), %edx
L1366:
	movl	%edx, (%esp)
	movl	$37, 4(%esp)
	movl	%edx, 24(%esp)
	call	_strchr
	testl	%eax, %eax
	movl	%eax, %esi
	movl	24(%esp), %edx
	je	L1352
	movl	8(%ebx), %ebp
	movl	%eax, %ecx
	movl	%ebx, %eax
	subl	%edx, %ecx
	call	_luaS_newlstr
	movl	%eax, 0(%ebp)
	movl	8(%ebx), %eax
	movl	28(%ebx), %edx
	movl	$4, 8(%ebp)
	subl	%eax, %edx
	cmpl	$16, %edx
	jle	L1374
	leal	16(%eax), %edx
	movl	%edx, 8(%ebx)
	movzbl	1(%esi), %edx
	cmpb	$100, %dl
	je	L1355
L1375:
	jg	L1356
	cmpb	$37, %dl
	je	L1357
	cmpb	$99, %dl
	jne	L1354
	movl	(%edi), %eax
	leal	4(%edi), %ebp
	leal	40(%esp), %edx
	movb	$0, 41(%esp)
	movl	%ebp, %edi
	movb	%al, 40(%esp)
	movl	%ebx, %eax
	call	_pushstr
	jmp	L1363
	.p2align 4,,10
L1374:
	movl	$1, %edx
	movl	%ebx, %eax
	call	_luaD_growstack
	movl	8(%ebx), %eax
	leal	16(%eax), %edx
	movl	%edx, 8(%ebx)
	movzbl	1(%esi), %edx
	cmpb	$100, %dl
	jne	L1375
L1355:
	leal	4(%edi), %ebp
	fildl	(%edi)
L1371:
	fstpl	16(%eax)
	movl	$3, 24(%eax)
	movl	28(%ebx), %edx
	movl	8(%ebx), %eax
	subl	%eax, %edx
	cmpl	$16, %edx
	jle	L1376
L1365:
	addl	$16, %eax
	movl	%ebp, %edi
	movl	%eax, 8(%ebx)
	jmp	L1363
	.p2align 4,,10
L1357:
	movl	$LC77, %edx
	movl	%ebx, %eax
	call	_pushstr
	jmp	L1363
	.p2align 4,,10
L1373:
	leal	8(%edi), %ebp
	fldl	(%edi)
	jmp	L1371
	.p2align 4,,10
L1360:
	movl	(%edi), %edx
	movl	$LC74, %eax
	leal	4(%edi), %ebp
	movl	%ebp, %edi
	testl	%edx, %edx
	cmove	%eax, %edx
	movl	%ebx, %eax
	call	_pushstr
	jmp	L1363
	.p2align 4,,10
L1359:
	movl	(%edi), %eax
	movl	$LC76, 4(%esp)
	leal	4(%edi), %ebp
	movl	%ebp, %edi
	movl	%eax, 8(%esp)
	leal	40(%esp), %eax
	movl	%eax, (%esp)
	call	_sprintf
	leal	40(%esp), %edx
	movl	%ebx, %eax
	call	_pushstr
	jmp	L1363
	.p2align 4,,10
L1352:
	movl	%ebx, %eax
	call	_pushstr
	movl	8(%ebx), %ecx
	subl	12(%ebx), %ecx
	movl	%ebx, %eax
	movl	28(%esp), %edi
	sarl	$4, %ecx
	leal	1(%edi), %edx
	subl	$1, %ecx
	call	_luaV_concat
	movl	%edi, %eax
	movl	8(%ebx), %edi
	sall	$4, %eax
	subl	%eax, %edi
	movl	%edi, 8(%ebx)
	movl	-16(%edi), %eax
	addl	$76, %esp
	.cfi_remember_state
	.cfi_def_cfa_offset 20
	popl	%ebx
	.cfi_restore 3
	.cfi_def_cfa_offset 16
	popl	%esi
	.cfi_restore 6
	.cfi_def_cfa_offset 12
	addl	$16, %eax
	popl	%edi
	.cfi_restore 7
	.cfi_def_cfa_offset 8
	popl	%ebp
	.cfi_restore 5
	.cfi_def_cfa_offset 4
	ret
	.p2align 4,,10
L1376:
	.cfi_restore_state
	movl	%ebx, %eax
	movl	$1, %edx
	call	_luaD_growstack
	movl	8(%ebx), %eax
	jmp	L1365
	.cfi_endproc
LFE71:
	.section	.text.unlikely,"x"
LCOLDE78:
	.text
LHOTE78:
	.section	.text.unlikely,"x"
LCOLDB79:
	.text
LHOTB79:
	.p2align 4,,15
	.def	_luaO_pushfstring;	.scl	3;	.type	32;	.endef
_luaO_pushfstring:
LFB72:
	.cfi_startproc
	subl	$12, %esp
	.cfi_def_cfa_offset 16
	movl	20(%esp), %edx
	movl	16(%esp), %eax
	leal	24(%esp), %ecx
	call	_luaO_pushvfstring
	addl	$12, %esp
	.cfi_def_cfa_offset 4
	ret
	.cfi_endproc
LFE72:
	.section	.text.unlikely,"x"
LCOLDE79:
	.text
LHOTE79:
	.section .rdata,"dr"
	.align 4
LC80:
	.ascii "main function has more than %d %s\0"
	.align 4
LC81:
	.ascii "function at line %d has more than %d %s\0"
	.section	.text.unlikely,"x"
LCOLDB82:
	.text
LHOTB82:
	.p2align 4,,15
	.def	_errorlimit;	.scl	3;	.type	32;	.endef
_errorlimit:
LFB269:
	.cfi_startproc
	pushl	%edi
	.cfi_def_cfa_offset 8
	.cfi_offset 7, -8
	pushl	%esi
	.cfi_def_cfa_offset 12
	.cfi_offset 6, -12
	pushl	%ebx
	.cfi_def_cfa_offset 16
	.cfi_offset 3, -16
	movl	%eax, %ebx
	subl	$112, %esp
	.cfi_def_cfa_offset 128
	movl	(%eax), %eax
	movl	60(%eax), %eax
	testl	%eax, %eax
	je	L1383
	movl	%ecx, 16(%esp)
	movl	%edx, 12(%esp)
	movl	%eax, 8(%esp)
	movl	$LC81, 4(%esp)
	movl	16(%ebx), %eax
	movl	%eax, (%esp)
	call	_luaO_pushfstring
	movl	%eax, %esi
L1381:
	movl	12(%ebx), %ebx
	leal	32(%esp), %edi
	movl	$80, %ecx
	movl	64(%ebx), %eax
	leal	16(%eax), %edx
	movl	%edi, %eax
	call	_luaO_chunkid
	movl	%esi, 16(%esp)
	movl	4(%ebx), %eax
	movl	%edi, 8(%esp)
	movl	$LC42, 4(%esp)
	movl	%eax, 12(%esp)
	movl	52(%ebx), %eax
	movl	%eax, (%esp)
	call	_luaO_pushfstring
	movl	52(%ebx), %eax
	movl	$3, %edx
	call	_luaD_throw
L1383:
	movl	%ecx, 12(%esp)
	movl	%edx, 8(%esp)
	movl	$LC80, 4(%esp)
	movl	16(%ebx), %eax
	movl	%eax, (%esp)
	call	_luaO_pushfstring
	movl	%eax, %esi
	jmp	L1381
	.cfi_endproc
LFE269:
	.section	.text.unlikely,"x"
LCOLDE82:
	.text
LHOTE82:
	.section .rdata,"dr"
LC83:
	.ascii "stack overflow\0"
	.section	.text.unlikely,"x"
LCOLDB84:
	.text
LHOTB84:
	.p2align 4,,15
	.def	_growCI;	.scl	3;	.type	32;	.endef
_growCI:
LFB96:
	.cfi_startproc
	pushl	%ebx
	.cfi_def_cfa_offset 8
	.cfi_offset 3, -8
	movl	%eax, %ebx
	subl	$24, %esp
	.cfi_def_cfa_offset 32
	movl	48(%eax), %edx
	cmpl	$20000, %edx
	jg	L1388
	addl	%edx, %edx
	call	_luaD_reallocCI
	cmpl	$20000, 48(%ebx)
	jg	L1389
	movl	20(%ebx), %eax
	addl	$24, %eax
	movl	%eax, 20(%ebx)
	addl	$24, %esp
	.cfi_remember_state
	.cfi_def_cfa_offset 8
	popl	%ebx
	.cfi_restore 3
	.cfi_def_cfa_offset 4
	ret
	.p2align 4,,10
L1389:
	.cfi_restore_state
	movl	%ebx, (%esp)
	movl	$LC83, 4(%esp)
	call	_luaG_runerror
	movl	20(%ebx), %eax
	addl	$24, %eax
	movl	%eax, 20(%ebx)
	addl	$24, %esp
	.cfi_remember_state
	.cfi_def_cfa_offset 8
	popl	%ebx
	.cfi_restore 3
	.cfi_def_cfa_offset 4
	ret
	.p2align 4,,10
L1388:
	.cfi_restore_state
	movl	$5, %edx
	call	_luaD_throw
	.cfi_endproc
LFE96:
	.section	.text.unlikely,"x"
LCOLDE84:
	.text
LHOTE84:
	.section .rdata,"dr"
LC85:
	.ascii "call\0"
	.section	.text.unlikely,"x"
LCOLDB86:
	.text
LHOTB86:
	.p2align 4,,15
	.def	_luaD_precall;	.scl	3;	.type	32;	.endef
_luaD_precall:
LFB99:
	.cfi_startproc
	pushl	%ebp
	.cfi_def_cfa_offset 8
	.cfi_offset 5, -8
	pushl	%edi
	.cfi_def_cfa_offset 12
	.cfi_offset 7, -12
	pushl	%esi
	.cfi_def_cfa_offset 16
	.cfi_offset 6, -16
	pushl	%ebx
	.cfi_def_cfa_offset 20
	.cfi_offset 3, -20
	movl	%edx, %esi
	movl	%eax, %ebx
	subl	$44, %esp
	.cfi_def_cfa_offset 64
	movl	8(%edx), %edi
	movl	%ecx, 20(%esp)
	cmpl	$6, %edi
	je	L1446
	movl	$16, (%esp)
	movl	(%edx), %edx
	leal	16(%eax), %eax
	movl	%edi, %ecx
	call	_luaT_gettmbyobj.isra.10
	movl	%esi, %ecx
	subl	32(%ebx), %ecx
	cmpl	$6, 8(%eax)
	movl	%eax, %ebp
	je	L1392
	movl	_luaT_typenames(,%edi,4), %eax
	movl	$LC85, 8(%esp)
	movl	$LC36, 4(%esp)
	movl	%ebx, (%esp)
	movl	%ecx, 16(%esp)
	movl	%eax, 12(%esp)
	call	_luaG_runerror
	movl	16(%esp), %ecx
L1392:
	movl	8(%ebx), %eax
	cmpl	%eax, %esi
	movl	%eax, %edx
	jnb	L1397
	movl	%ebp, 16(%esp)
	.p2align 4,,10
L1429:
	movl	-16(%edx), %edi
	movl	-12(%edx), %ebp
	subl	$16, %edx
	movl	%edi, 16(%edx)
	movl	8(%edx), %edi
	movl	%ebp, 20(%edx)
	movl	%edi, 24(%edx)
	cmpl	%edx, %esi
	jb	L1429
	movl	16(%esp), %ebp
L1397:
	movl	28(%ebx), %edi
	movl	%edi, 16(%esp)
	subl	%eax, %edi
	cmpl	$16, %edi
	jle	L1447
L1395:
	addl	32(%ebx), %ecx
	movl	0(%ebp), %eax
	movl	4(%ebp), %edx
	addl	$16, 8(%ebx)
	movl	%eax, (%ecx)
	movl	%ecx, %esi
	movl	%edx, 4(%ecx)
	movl	8(%ebp), %eax
	movl	%eax, 8(%ecx)
L1391:
	movl	(%esi), %ecx
	movl	%esi, %edi
	movl	20(%ebx), %eax
	movl	24(%ebx), %esi
	subl	32(%ebx), %edi
	movl	%esi, 12(%eax)
	cmpb	$0, 6(%ecx)
	jne	L1398
	movl	16(%ecx), %ebp
	movl	16(%esp), %edx
	subl	8(%ebx), %edx
	movzbl	75(%ebp), %ecx
	movl	%ecx, %esi
	sall	$4, %esi
	cmpl	%esi, %edx
	jle	L1448
	addl	32(%ebx), %edi
	cmpb	$0, 74(%ebp)
	movl	%edi, 24(%esp)
	jne	L1400
L1454:
	movzbl	73(%ebp), %edx
	leal	16(%edi), %esi
	sall	$4, %edx
	addl	%esi, %edx
	cmpl	%edx, 8(%ebx)
	ja	L1449
L1401:
	cmpl	36(%ebx), %eax
	je	L1450
	addl	$24, %eax
	movl	%eax, 20(%ebx)
L1406:
	movl	24(%esp), %ecx
	movl	%esi, (%eax)
	movl	%ecx, 4(%eax)
	movl	%esi, 12(%ebx)
	movzbl	75(%ebp), %edx
	movl	20(%esp), %ecx
	sall	$4, %edx
	addl	%edx, %esi
	movl	12(%ebp), %edx
	movl	%esi, 8(%eax)
	movl	%edx, 24(%ebx)
	movl	$0, 20(%eax)
	movl	%ecx, 16(%eax)
	movl	8(%ebx), %eax
	cmpl	%eax, %esi
	jbe	L1410
	.p2align 4,,10
L1428:
	movl	$0, 8(%eax)
	addl	$16, %eax
	cmpl	%eax, %esi
	ja	L1428
L1410:
	movl	%esi, 8(%ebx)
	addl	$44, %esp
	.cfi_remember_state
	.cfi_def_cfa_offset 20
	xorl	%eax, %eax
	popl	%ebx
	.cfi_restore 3
	.cfi_def_cfa_offset 16
	popl	%esi
	.cfi_restore 6
	.cfi_def_cfa_offset 12
	popl	%edi
	.cfi_restore 7
	.cfi_def_cfa_offset 8
	popl	%ebp
	.cfi_restore 5
	.cfi_def_cfa_offset 4
	ret
	.p2align 4,,10
L1398:
	.cfi_restore_state
	movl	16(%esp), %edx
	subl	8(%ebx), %edx
	cmpl	$320, %edx
	jle	L1451
	cmpl	36(%ebx), %eax
	je	L1452
L1412:
	addl	$24, %eax
	movl	%eax, 20(%ebx)
	movl	%eax, %edx
L1413:
	addl	32(%ebx), %edi
	movl	8(%ebx), %ecx
	addl	$320, %ecx
	movl	%edi, 4(%eax)
	addl	$16, %edi
	movl	%edi, (%eax)
	movl	%edi, 12(%ebx)
	movl	%ecx, 8(%eax)
	movl	20(%esp), %ecx
	movl	%ecx, 16(%eax)
	movl	4(%edx), %eax
	movl	(%eax), %eax
	movl	%ebx, (%esp)
	call	*16(%eax)
	movl	%eax, %edx
	movl	$2, %eax
	testl	%edx, %edx
	jns	L1453
	addl	$44, %esp
	.cfi_remember_state
	.cfi_def_cfa_offset 20
	popl	%ebx
	.cfi_restore 3
	.cfi_def_cfa_offset 16
	popl	%esi
	.cfi_restore 6
	.cfi_def_cfa_offset 12
	popl	%edi
	.cfi_restore 7
	.cfi_def_cfa_offset 8
	popl	%ebp
	.cfi_restore 5
	.cfi_def_cfa_offset 4
	ret
	.p2align 4,,10
L1447:
	.cfi_restore_state
	movl	%ebx, %eax
	movl	$1, %edx
	movl	%ecx, 24(%esp)
	call	_luaD_growstack
	movl	28(%ebx), %eax
	movl	24(%esp), %ecx
	movl	%eax, 16(%esp)
	jmp	L1395
	.p2align 4,,10
L1446:
	movl	28(%eax), %eax
	movl	%eax, 16(%esp)
	jmp	L1391
	.p2align 4,,10
L1449:
	movl	%edx, 8(%ebx)
	jmp	L1401
	.p2align 4,,10
L1448:
	movl	%ebx, %eax
	movl	%ecx, %edx
	call	_luaD_growstack
	addl	32(%ebx), %edi
	cmpb	$0, 74(%ebp)
	movl	20(%ebx), %eax
	movl	%edi, 24(%esp)
	je	L1454
L1400:
	movl	8(%ebx), %ecx
	movl	%ecx, %edx
	subl	24(%esp), %edx
	movl	%ecx, %esi
	movl	%ecx, 28(%esp)
	movzbl	73(%ebp), %ecx
	sarl	$4, %edx
	leal	-1(%edx), %edi
	movl	%edx, 16(%esp)
	cmpl	%ecx, %edi
	jge	L1402
	leal	8(%esi), %esi
	movl	%edi, %edx
	.p2align 4,,10
L1403:
	addl	$1, %edx
	movl	$0, (%esi)
	addl	$16, %esi
	cmpl	%edx, %ecx
	jne	L1403
	leal	1(%ecx), %edx
	movl	%edx, %esi
	subl	16(%esp), %esi
	addl	%edx, %edi
	subl	16(%esp), %edi
	sall	$4, %esi
	addl	28(%esp), %esi
	movl	%esi, 8(%ebx)
L1402:
	sall	$4, %edi
	testl	%ecx, %ecx
	je	L1401
	movl	%esi, %edx
	sall	$4, %ecx
	movl	%esi, 28(%esp)
	subl	%edi, %edx
	addl	$8, %edx
	movl	%edx, 16(%esp)
	movl	%esi, %edx
	subl	%edi, %edx
	leal	8(%edx,%ecx), %ecx
	movl	16(%esp), %edx
	movl	%ecx, %edi
	movl	%esi, %ecx
	movl	%edi, 16(%esp)
	jmp	L1404
	.p2align 4,,10
L1455:
	movl	8(%ebx), %ecx
L1404:
	leal	16(%ecx), %esi
	addl	$16, %edx
	movl	%esi, 8(%ebx)
	movl	-24(%edx), %esi
	movl	-20(%edx), %edi
	movl	%esi, (%ecx)
	movl	%edi, 4(%ecx)
	movl	-16(%edx), %esi
	movl	%esi, 8(%ecx)
	movl	$0, -16(%edx)
	cmpl	16(%esp), %edx
	jne	L1455
	movl	28(%esp), %esi
	jmp	L1401
	.p2align 4,,10
L1451:
	movl	%ebx, %eax
	movl	$20, %edx
	call	_luaD_growstack
	movl	20(%ebx), %eax
	cmpl	36(%ebx), %eax
	jne	L1412
	jmp	L1452
	.p2align 4,,10
L1453:
	movl	8(%ebx), %ebp
	movl	20(%ebx), %eax
	sall	$4, %edx
	movl	%ebp, %ecx
	movl	16(%eax), %edi
	movl	4(%eax), %esi
	subl	%edx, %ecx
	leal	-24(%eax), %edx
	movl	%edx, 20(%ebx)
	movl	-24(%eax), %edx
	testl	%edi, %edi
	movl	-12(%eax), %eax
	movl	%edx, 12(%ebx)
	movl	%eax, 24(%ebx)
	jne	L1444
	jmp	L1414
	.p2align 4,,10
L1456:
	addl	$16, %ecx
	movl	-16(%ecx), %eax
	movl	-12(%ecx), %edx
	addl	$16, %esi
	subl	$1, %edi
	movl	%eax, -16(%esi)
	movl	%edx, -12(%esi)
	movl	-8(%ecx), %eax
	movl	%eax, -8(%esi)
	je	L1414
L1444:
	cmpl	%ecx, %ebp
	ja	L1456
	testl	%edi, %edi
	leal	-1(%edi), %eax
	jle	L1414
	movl	%esi, %edx
	.p2align 4,,10
L1417:
	subl	$1, %eax
	addl	$16, %edx
	movl	$0, -8(%edx)
	cmpl	$-1, %eax
	jne	L1417
	sall	$4, %edi
	addl	%edi, %esi
L1414:
	movl	%esi, 8(%ebx)
	addl	$44, %esp
	.cfi_remember_state
	.cfi_def_cfa_offset 20
	movl	$1, %eax
	popl	%ebx
	.cfi_restore 3
	.cfi_def_cfa_offset 16
	popl	%esi
	.cfi_restore 6
	.cfi_def_cfa_offset 12
	popl	%edi
	.cfi_restore 7
	.cfi_def_cfa_offset 8
	popl	%ebp
	.cfi_restore 5
	.cfi_def_cfa_offset 4
	ret
L1452:
	.cfi_restore_state
	movl	%ebx, %eax
	call	_growCI
	movl	20(%ebx), %edx
	jmp	L1413
L1450:
	movl	%ebx, %eax
	call	_growCI
	jmp	L1406
	.cfi_endproc
LFE99:
	.section	.text.unlikely,"x"
LCOLDE86:
	.text
LHOTE86:
	.section .rdata,"dr"
LC87:
	.ascii "table overflow\0"
	.section	.text.unlikely,"x"
LCOLDB88:
	.text
LHOTB88:
	.p2align 4,,15
	.def	_setnodevector;	.scl	3;	.type	32;	.endef
_setnodevector:
LFB119:
	.cfi_startproc
	pushl	%edi
	.cfi_def_cfa_offset 8
	.cfi_offset 7, -8
	pushl	%esi
	.cfi_def_cfa_offset 12
	.cfi_offset 6, -12
	movl	%edx, %esi
	pushl	%ebx
	.cfi_def_cfa_offset 16
	.cfi_offset 3, -16
	subl	$32, %esp
	.cfi_def_cfa_offset 48
	testl	%ecx, %ecx
	je	L1472
	subl	$1, %ecx
	movl	$-1, %edx
	cmpl	$255, %ecx
	jbe	L1460
	.p2align 4,,10
L1461:
	shrl	$8, %ecx
	addl	$8, %edx
	cmpl	$255, %ecx
	ja	L1461
L1460:
	movzbl	_log_2.5931(%ecx), %ecx
	leal	1(%edx,%ecx), %edi
	cmpl	$30, %edi
	jg	L1473
L1462:
	movl	$1, %ebx
	movl	%edi, %ecx
	sall	%cl, %ebx
	leal	1(%ebx), %edx
	cmpl	$134217727, %edx
	jbe	L1474
	movl	%eax, (%esp)
	movl	$LC44, 4(%esp)
	call	_luaG_runerror
	xorl	%eax, %eax
L1464:
	xorl	%edx, %edx
	testl	%ebx, %ebx
	movl	%eax, 16(%esi)
	movl	%eax, %ecx
	jg	L1470
	jmp	L1475
	.p2align 4,,10
L1476:
	movl	16(%esi), %ecx
L1470:
	movl	%edx, %eax
	addl	$1, %edx
	sall	$5, %eax
	addl	%ecx, %eax
	cmpl	%edx, %ebx
	movl	$0, 28(%eax)
	movl	$0, 24(%eax)
	movl	$0, 8(%eax)
	jne	L1476
	sall	$5, %ebx
	addl	16(%esi), %ebx
	movl	%edi, %edx
L1459:
	movl	%ebx, 20(%esi)
	movb	%dl, 7(%esi)
	addl	$32, %esp
	.cfi_remember_state
	.cfi_def_cfa_offset 16
	popl	%ebx
	.cfi_restore 3
	.cfi_def_cfa_offset 12
	popl	%esi
	.cfi_restore 6
	.cfi_def_cfa_offset 8
	popl	%edi
	.cfi_restore 7
	.cfi_def_cfa_offset 4
	ret
	.p2align 4,,10
L1474:
	.cfi_restore_state
	movl	%ebx, %edx
	xorl	%ecx, %ecx
	sall	$5, %edx
	movl	%edx, (%esp)
	xorl	%edx, %edx
	call	_luaM_realloc_
	jmp	L1464
	.p2align 4,,10
L1472:
	movl	$_dummynode_, 16(%edx)
	movl	$_dummynode_, %ebx
	xorl	%edx, %edx
	movl	%ebx, 20(%esi)
	movb	%dl, 7(%esi)
	addl	$32, %esp
	.cfi_remember_state
	.cfi_def_cfa_offset 16
	popl	%ebx
	.cfi_restore 3
	.cfi_def_cfa_offset 12
	popl	%esi
	.cfi_restore 6
	.cfi_def_cfa_offset 8
	popl	%edi
	.cfi_restore 7
	.cfi_def_cfa_offset 4
	ret
	.p2align 4,,10
L1473:
	.cfi_restore_state
	movl	%eax, (%esp)
	movl	$LC87, 4(%esp)
	movl	%eax, 28(%esp)
	call	_luaG_runerror
	movl	28(%esp), %eax
	jmp	L1462
L1475:
	sall	$5, %ebx
	movl	%edi, %edx
	addl	%eax, %ebx
	jmp	L1459
	.cfi_endproc
LFE119:
	.section	.text.unlikely,"x"
LCOLDE88:
	.text
LHOTE88:
	.section	.text.unlikely,"x"
LCOLDB89:
	.text
LHOTB89:
	.p2align 4,,15
	.def	_luaH_new;	.scl	3;	.type	32;	.endef
_luaH_new:
LFB123:
	.cfi_startproc
	pushl	%ebp
	.cfi_def_cfa_offset 8
	.cfi_offset 5, -8
	pushl	%edi
	.cfi_def_cfa_offset 12
	.cfi_offset 7, -12
	movl	%edx, %ebp
	pushl	%esi
	.cfi_def_cfa_offset 16
	.cfi_offset 6, -16
	pushl	%ebx
	.cfi_def_cfa_offset 20
	.cfi_offset 3, -20
	movl	%eax, %esi
	movl	%ecx, %edi
	xorl	%edx, %edx
	xorl	%ecx, %ecx
	subl	$28, %esp
	.cfi_def_cfa_offset 48
	movl	$32, (%esp)
	call	_luaM_realloc_
	movl	%eax, %ebx
	movl	16(%esi), %eax
	leal	28(%ebx), %ecx
	movl	28(%eax), %edx
	movl	%edx, (%ebx)
	movl	%ebx, 28(%eax)
	leal	12(%ebx), %edx
	movzbl	20(%eax), %eax
	movb	$5, 4(%ebx)
	movl	$0, 8(%ebx)
	movb	$-1, 6(%ebx)
	movl	$0, 12(%ebx)
	movl	$0, 28(%ebx)
	movb	$0, 7(%ebx)
	movl	$_dummynode_, 16(%ebx)
	andl	$3, %eax
	movb	%al, 5(%ebx)
	movl	%ebp, (%esp)
	movl	%esi, %eax
	call	_setarrayvector.isra.53
	movl	%esi, %eax
	movl	%edi, %ecx
	movl	%ebx, %edx
	call	_setnodevector
	addl	$28, %esp
	.cfi_def_cfa_offset 20
	movl	%ebx, %eax
	popl	%ebx
	.cfi_restore 3
	.cfi_def_cfa_offset 16
	popl	%esi
	.cfi_restore 6
	.cfi_def_cfa_offset 12
	popl	%edi
	.cfi_restore 7
	.cfi_def_cfa_offset 8
	popl	%ebp
	.cfi_restore 5
	.cfi_def_cfa_offset 4
	ret
	.cfi_endproc
LFE123:
	.section	.text.unlikely,"x"
LCOLDE89:
	.text
LHOTE89:
	.section .rdata,"dr"
LC90:
	.ascii "index\0"
LC91:
	.ascii "loop in gettable\0"
	.section	.text.unlikely,"x"
LCOLDB92:
	.text
LHOTB92:
	.p2align 4,,15
	.def	_luaV_gettable;	.scl	3;	.type	32;	.endef
_luaV_gettable:
LFB340:
	.cfi_startproc
	pushl	%ebp
	.cfi_def_cfa_offset 8
	.cfi_offset 5, -8
	pushl	%edi
	.cfi_def_cfa_offset 12
	.cfi_offset 7, -12
	movl	%eax, %edi
	pushl	%esi
	.cfi_def_cfa_offset 16
	.cfi_offset 6, -16
	pushl	%ebx
	.cfi_def_cfa_offset 20
	.cfi_offset 3, -20
	movl	%edx, %esi
	movl	$100, %ebx
	subl	$44, %esp
	.cfi_def_cfa_offset 64
	movl	8(%edx), %edx
	movl	%ecx, 28(%esp)
	movl	%ebx, 20(%esp)
	cmpl	$5, %edx
	je	L1511
	.p2align 4,,10
L1480:
	cmpl	$7, %edx
	jne	L1509
	movl	(%esi), %eax
	movl	8(%eax), %ebp
	testl	%ebp, %ebp
	je	L1499
L1515:
	movzbl	7(%ebp), %ecx
	movl	16(%edi), %eax
	movl	$1, %ebx
	movl	188(%eax), %eax
	sall	%cl, %ebx
	movl	%ebx, %ecx
	movl	20(%esp), %ebx
	subl	$1, %ecx
	andl	8(%eax), %ecx
	sall	$5, %ecx
	addl	16(%ebp), %ecx
	jmp	L1493
	.p2align 4,,10
L1492:
	movl	28(%ecx), %ecx
	testl	%ecx, %ecx
	je	L1512
L1493:
	cmpl	$4, 24(%ecx)
	jne	L1492
	cmpl	16(%ecx), %eax
	jne	L1492
	movl	8(%ecx), %eax
	movl	%ebx, 20(%esp)
	testl	%eax, %eax
	je	L1491
	movl	%eax, %edx
L1485:
	cmpl	$6, %edx
	je	L1513
L1494:
	subl	$1, 20(%esp)
	je	L1514
	cmpl	$5, %edx
	movl	%ecx, %esi
	jne	L1480
L1511:
	movl	(%esi), %ebp
	movl	28(%esp), %edx
	movl	%ebp, %eax
	call	_luaH_get
	movl	8(%eax), %edx
	testl	%edx, %edx
	jne	L1481
	movl	8(%ebp), %ebp
	testl	%ebp, %ebp
	je	L1498
	movzbl	6(%ebp), %edx
	movb	%dl, 24(%esp)
	andl	$1, %edx
	jne	L1498
	movzbl	7(%ebp), %ecx
	movl	16(%edi), %edx
	movl	$1, %ebx
	movl	188(%edx), %edx
	sall	%cl, %ebx
	movl	%ebx, %ecx
	movl	20(%esp), %ebx
	subl	$1, %ecx
	andl	8(%edx), %ecx
	sall	$5, %ecx
	addl	16(%ebp), %ecx
	jmp	L1486
	.p2align 4,,10
L1483:
	movl	28(%ecx), %ecx
	testl	%ecx, %ecx
	je	L1484
L1486:
	cmpl	$4, 24(%ecx)
	jne	L1483
	cmpl	16(%ecx), %edx
	jne	L1483
	movl	8(%ecx), %edx
	movl	%ebx, 20(%esp)
	testl	%edx, %edx
	jne	L1485
	.p2align 4,,10
L1484:
	movzbl	24(%esp), %edx
	orl	$1, %edx
	movb	%dl, 6(%ebp)
	movl	8(%eax), %edx
	jmp	L1481
	.p2align 4,,10
L1512:
	movl	%ebx, 20(%esp)
	movl	$_luaO_nilobject_, %ecx
L1491:
	movl	_luaT_typenames(,%edx,4), %eax
	movl	$LC90, 8(%esp)
	movl	$LC36, 4(%esp)
	movl	%edi, (%esp)
	movl	%ecx, 24(%esp)
	movl	%eax, 12(%esp)
	call	_luaG_runerror
	movl	24(%esp), %ecx
	movl	8(%ecx), %edx
	cmpl	$6, %edx
	jne	L1494
L1513:
	movl	28(%esp), %ebx
	movl	64(%esp), %edx
	movl	%esi, (%esp)
	movl	%ebx, %eax
	movl	%ebx, 8(%esp)
	addl	$8, %eax
	movl	%eax, 12(%esp)
	leal	8(%esi), %eax
	movl	%eax, 4(%esp)
	movl	%edi, %eax
	call	_callTMres.isra.49
	addl	$44, %esp
	.cfi_remember_state
	.cfi_def_cfa_offset 20
	popl	%ebx
	.cfi_restore 3
	.cfi_def_cfa_offset 16
	popl	%esi
	.cfi_restore 6
	.cfi_def_cfa_offset 12
	popl	%edi
	.cfi_restore 7
	.cfi_def_cfa_offset 8
	popl	%ebp
	.cfi_restore 5
	.cfi_def_cfa_offset 4
	ret
	.p2align 4,,10
L1509:
	.cfi_restore_state
	movl	16(%edi), %eax
	movl	152(%eax,%edx,4), %ebp
	testl	%ebp, %ebp
	jne	L1515
L1499:
	movl	$_luaO_nilobject_, %ecx
	jmp	L1491
L1498:
	xorl	%edx, %edx
L1481:
	movl	4(%eax), %ebx
	movl	(%eax), %ecx
	movl	64(%esp), %eax
	movl	%ecx, (%eax)
	movl	%ebx, 4(%eax)
	movl	%edx, 8(%eax)
	addl	$44, %esp
	.cfi_remember_state
	.cfi_def_cfa_offset 20
	popl	%ebx
	.cfi_restore 3
	.cfi_def_cfa_offset 16
	popl	%esi
	.cfi_restore 6
	.cfi_def_cfa_offset 12
	popl	%edi
	.cfi_restore 7
	.cfi_def_cfa_offset 8
	popl	%ebp
	.cfi_restore 5
	.cfi_def_cfa_offset 4
	ret
L1514:
	.cfi_restore_state
	movl	%edi, (%esp)
	movl	$LC91, 4(%esp)
	call	_luaG_runerror
	addl	$44, %esp
	.cfi_def_cfa_offset 20
	popl	%ebx
	.cfi_restore 3
	.cfi_def_cfa_offset 16
	popl	%esi
	.cfi_restore 6
	.cfi_def_cfa_offset 12
	popl	%edi
	.cfi_restore 7
	.cfi_def_cfa_offset 8
	popl	%ebp
	.cfi_restore 5
	.cfi_def_cfa_offset 4
	ret
	.cfi_endproc
LFE340:
	.section	.text.unlikely,"x"
LCOLDE92:
	.text
LHOTE92:
	.section	.text.unlikely,"x"
LCOLDB93:
	.text
LHOTB93:
	.p2align 4,,15
	.def	_lua_getfield;	.scl	3;	.type	32;	.endef
_lua_getfield:
LFB387:
	.cfi_startproc
	pushl	%edi
	.cfi_def_cfa_offset 8
	.cfi_offset 7, -8
	pushl	%esi
	.cfi_def_cfa_offset 12
	.cfi_offset 6, -12
	movl	%ecx, %esi
	pushl	%ebx
	.cfi_def_cfa_offset 16
	.cfi_offset 3, -16
	movl	%eax, %ebx
	subl	$32, %esp
	.cfi_def_cfa_offset 48
	call	_index2adr
	movl	%esi, (%esp)
	movl	%eax, %edi
	call	_strlen
	movl	%esi, %edx
	movl	%eax, %ecx
	movl	%ebx, %eax
	call	_luaS_newlstr
	movl	%eax, 16(%esp)
	movl	8(%ebx), %eax
	leal	16(%esp), %ecx
	movl	%edi, %edx
	movl	$4, 24(%esp)
	movl	%eax, (%esp)
	movl	%ebx, %eax
	call	_luaV_gettable
	addl	$16, 8(%ebx)
	addl	$32, %esp
	.cfi_def_cfa_offset 16
	popl	%ebx
	.cfi_restore 3
	.cfi_def_cfa_offset 12
	popl	%esi
	.cfi_restore 6
	.cfi_def_cfa_offset 8
	popl	%edi
	.cfi_restore 7
	.cfi_def_cfa_offset 4
	ret
	.cfi_endproc
LFE387:
	.section	.text.unlikely,"x"
LCOLDE93:
	.text
LHOTE93:
	.section .rdata,"dr"
	.align 4
LC94:
	.ascii "attempt to compare two %s values\0"
LC95:
	.ascii "attempt to compare %s with %s\0"
	.section	.text.unlikely,"x"
LCOLDB96:
	.text
LHOTB96:
	.p2align 4,,15
	.def	_luaG_ordererror.isra.60;	.scl	3;	.type	32;	.endef
_luaG_ordererror.isra.60:
LFB624:
	.cfi_startproc
	pushl	%ebx
	.cfi_def_cfa_offset 8
	.cfi_offset 3, -8
	subl	$24, %esp
	.cfi_def_cfa_offset 32
	movl	_luaT_typenames(,%ecx,4), %ecx
	movl	_luaT_typenames(,%edx,4), %edx
	movzbl	2(%ecx), %ebx
	cmpb	%bl, 2(%edx)
	je	L1522
	movl	%eax, (%esp)
	movl	%ecx, 12(%esp)
	movl	%edx, 8(%esp)
	movl	$LC95, 4(%esp)
	call	_luaG_runerror
	addl	$24, %esp
	.cfi_remember_state
	.cfi_def_cfa_offset 8
	xorl	%eax, %eax
	popl	%ebx
	.cfi_restore 3
	.cfi_def_cfa_offset 4
	ret
	.p2align 4,,10
L1522:
	.cfi_restore_state
	movl	%eax, (%esp)
	movl	%edx, 8(%esp)
	movl	$LC94, 4(%esp)
	call	_luaG_runerror
	addl	$24, %esp
	.cfi_def_cfa_offset 8
	xorl	%eax, %eax
	popl	%ebx
	.cfi_restore 3
	.cfi_def_cfa_offset 4
	ret
	.cfi_endproc
LFE624:
	.section	.text.unlikely,"x"
LCOLDE96:
	.text
LHOTE96:
	.section	.text.unlikely,"x"
LCOLDB97:
	.text
LHOTB97:
	.p2align 4,,15
	.def	_luaV_lessthan;	.scl	3;	.type	32;	.endef
_luaV_lessthan:
LFB346:
	.cfi_startproc
	pushl	%ebp
	.cfi_def_cfa_offset 8
	.cfi_offset 5, -8
	pushl	%edi
	.cfi_def_cfa_offset 12
	.cfi_offset 7, -12
	pushl	%esi
	.cfi_def_cfa_offset 16
	.cfi_offset 6, -16
	pushl	%ebx
	.cfi_def_cfa_offset 20
	.cfi_offset 3, -20
	subl	$28, %esp
	.cfi_def_cfa_offset 48
	movl	8(%edx), %ebp
	movl	8(%ecx), %ebx
	cmpl	%ebx, %ebp
	jne	L1536
	cmpl	$3, %ebp
	je	L1537
	cmpl	$4, %ebp
	movl	%ecx, %esi
	movl	%edx, %ebx
	movl	%eax, %edi
	je	L1538
	movl	$13, (%esp)
	call	_call_orderTM
	cmpl	$-1, %eax
	je	L1539
L1526:
	addl	$28, %esp
	.cfi_remember_state
	.cfi_def_cfa_offset 20
	popl	%ebx
	.cfi_restore 3
	.cfi_def_cfa_offset 16
	popl	%esi
	.cfi_restore 6
	.cfi_def_cfa_offset 12
	popl	%edi
	.cfi_restore 7
	.cfi_def_cfa_offset 8
	popl	%ebp
	.cfi_restore 5
	.cfi_def_cfa_offset 4
	ret
	.p2align 4,,10
L1536:
	.cfi_restore_state
	movl	%ebx, %ecx
	movl	%ebp, %edx
L1535:
	addl	$28, %esp
	.cfi_remember_state
	.cfi_def_cfa_offset 20
	popl	%ebx
	.cfi_restore 3
	.cfi_def_cfa_offset 16
	popl	%esi
	.cfi_restore 6
	.cfi_def_cfa_offset 12
	popl	%edi
	.cfi_restore 7
	.cfi_def_cfa_offset 8
	popl	%ebp
	.cfi_restore 5
	.cfi_def_cfa_offset 4
	jmp	_luaG_ordererror.isra.60
	.p2align 4,,10
L1537:
	.cfi_restore_state
	fldl	(%ecx)
	xorl	%eax, %eax
	fldl	(%edx)
	fxch	%st(1)
	fucomip	%st(1), %st
	fstp	%st(0)
	seta	%al
	addl	$28, %esp
	.cfi_remember_state
	.cfi_def_cfa_offset 20
	popl	%ebx
	.cfi_restore 3
	.cfi_def_cfa_offset 16
	popl	%esi
	.cfi_restore 6
	.cfi_def_cfa_offset 12
	popl	%edi
	.cfi_restore 7
	.cfi_def_cfa_offset 8
	popl	%ebp
	.cfi_restore 5
	.cfi_def_cfa_offset 4
	ret
	.p2align 4,,10
L1538:
	.cfi_restore_state
	movl	(%ecx), %eax
	movl	(%edx), %edx
	leal	16(%eax), %esi
	leal	16(%edx), %ebx
	movl	12(%edx), %ebp
	movl	12(%eax), %edi
	jmp	L1530
	.p2align 4,,10
L1540:
	movl	%ebx, (%esp)
	call	_strlen
	cmpl	%edi, %eax
	je	L1531
	cmpl	%ebp, %eax
	je	L1532
	addl	$1, %eax
	addl	%eax, %ebx
	subl	%eax, %ebp
	addl	%eax, %esi
	subl	%eax, %edi
L1530:
	movl	%esi, 4(%esp)
	movl	%ebx, (%esp)
	call	_strcoll
	testl	%eax, %eax
	je	L1540
	shrl	$31, %eax
	jmp	L1526
	.p2align 4,,10
L1539:
	movl	8(%esi), %ecx
	movl	8(%ebx), %edx
	movl	%edi, %eax
	jmp	L1535
	.p2align 4,,10
L1531:
	xorl	%eax, %eax
	jmp	L1526
	.p2align 4,,10
L1532:
	movl	$1, %eax
	jmp	L1526
	.cfi_endproc
LFE346:
	.section	.text.unlikely,"x"
LCOLDE97:
	.text
LHOTE97:
	.section	.text.unlikely,"x"
LCOLDB98:
	.text
LHOTB98:
	.p2align 4,,15
	.def	_luaM_growaux_;	.scl	3;	.type	32;	.endef
_luaM_growaux_:
LFB62:
	.cfi_startproc
	pushl	%ebp
	.cfi_def_cfa_offset 8
	.cfi_offset 5, -8
	pushl	%edi
	.cfi_def_cfa_offset 12
	.cfi_offset 7, -12
	movl	%eax, %edi
	pushl	%esi
	.cfi_def_cfa_offset 16
	.cfi_offset 6, -16
	pushl	%ebx
	.cfi_def_cfa_offset 20
	.cfi_offset 3, -20
	movl	%edx, %ebp
	movl	%ecx, %esi
	subl	$28, %esp
	.cfi_def_cfa_offset 48
	movl	(%ecx), %edx
	movl	52(%esp), %ebx
	movl	%ebx, %eax
	shrl	$31, %eax
	addl	%ebx, %eax
	sarl	%eax
	cmpl	%eax, %edx
	jl	L1542
	cmpl	%ebx, %edx
	jge	L1550
L1549:
	xorl	%edx, %edx
	movl	$-3, %eax
	leal	1(%ebx), %ecx
	divl	48(%esp)
	cmpl	%ecx, %eax
	jb	L1545
L1551:
	movl	48(%esp), %eax
	movl	48(%esp), %ecx
	movl	%ebp, %edx
	imull	(%esi), %ecx
	imull	%ebx, %eax
	movl	%eax, (%esp)
	movl	%edi, %eax
	call	_luaM_realloc_
	movl	%ebx, (%esi)
	addl	$28, %esp
	.cfi_remember_state
	.cfi_def_cfa_offset 20
	popl	%ebx
	.cfi_restore 3
	.cfi_def_cfa_offset 16
	popl	%esi
	.cfi_restore 6
	.cfi_def_cfa_offset 12
	popl	%edi
	.cfi_restore 7
	.cfi_def_cfa_offset 8
	popl	%ebp
	.cfi_restore 5
	.cfi_def_cfa_offset 4
	ret
	.p2align 4,,10
L1542:
	.cfi_restore_state
	leal	(%edx,%edx), %ebx
	cmpl	$3, %ebx
	jg	L1549
	xorl	%edx, %edx
	movl	$-3, %eax
	movl	$5, %ecx
	divl	48(%esp)
	movl	$4, %ebx
	cmpl	%ecx, %eax
	jnb	L1551
L1545:
	movl	%edi, (%esp)
	movl	$LC44, 4(%esp)
	call	_luaG_runerror
	movl	%ebx, (%esi)
	addl	$28, %esp
	.cfi_remember_state
	.cfi_def_cfa_offset 20
	xorl	%eax, %eax
	popl	%ebx
	.cfi_restore 3
	.cfi_def_cfa_offset 16
	popl	%esi
	.cfi_restore 6
	.cfi_def_cfa_offset 12
	popl	%edi
	.cfi_restore 7
	.cfi_def_cfa_offset 8
	popl	%ebp
	.cfi_restore 5
	.cfi_def_cfa_offset 4
	ret
	.p2align 4,,10
L1550:
	.cfi_restore_state
	movl	56(%esp), %eax
	movl	%edi, (%esp)
	movl	%eax, 4(%esp)
	call	_luaG_runerror
	jmp	L1549
	.cfi_endproc
LFE62:
	.section	.text.unlikely,"x"
LCOLDE98:
	.text
LHOTE98:
	.section .rdata,"dr"
LC99:
	.ascii "local variables\0"
LC100:
	.ascii "too many local variables\0"
	.section	.text.unlikely,"x"
LCOLDB101:
	.text
LHOTB101:
	.p2align 4,,15
	.def	_new_localvar;	.scl	3;	.type	32;	.endef
_new_localvar:
LFB279:
	.cfi_startproc
	pushl	%ebp
	.cfi_def_cfa_offset 8
	.cfi_offset 5, -8
	pushl	%edi
	.cfi_def_cfa_offset 12
	.cfi_offset 7, -12
	movl	%eax, %edi
	pushl	%esi
	.cfi_def_cfa_offset 16
	.cfi_offset 6, -16
	pushl	%ebx
	.cfi_def_cfa_offset 20
	.cfi_offset 3, -20
	subl	$44, %esp
	.cfi_def_cfa_offset 64
	movl	48(%eax), %ebx
	movzbl	50(%ebx), %eax
	addl	%ecx, %eax
	cmpl	$199, %eax
	movl	%eax, 24(%esp)
	jg	L1568
	movl	(%ebx), %esi
	movl	%edx, %ebp
	movswl	48(%ebx), %edx
	movl	56(%esi), %eax
	movl	%eax, %ecx
	movl	%eax, 28(%esp)
	movl	%edx, %eax
	cmpl	%edx, %ecx
	jle	L1569
L1554:
	movl	24(%esi), %ecx
	leal	(%edx,%edx,2), %edx
	leal	(%ecx,%edx,4), %edx
	movl	%ebp, (%edx)
	testb	$3, 5(%ebp)
	je	L1557
	movzbl	5(%esi), %edx
	testb	$4, %dl
	je	L1557
	movl	52(%edi), %eax
	movl	16(%eax), %eax
	cmpb	$1, 21(%eax)
	je	L1570
	movzbl	20(%eax), %eax
	andl	$-8, %edx
	andl	$3, %eax
	orl	%eax, %edx
	movb	%dl, 5(%esi)
	movzwl	48(%ebx), %eax
L1557:
	movl	24(%esp), %edi
	leal	1(%eax), %edx
	movw	%dx, 48(%ebx)
	movw	%ax, 172(%ebx,%edi,2)
	addl	$44, %esp
	.cfi_remember_state
	.cfi_def_cfa_offset 20
	popl	%ebx
	.cfi_restore 3
	.cfi_def_cfa_offset 16
	popl	%esi
	.cfi_restore 6
	.cfi_def_cfa_offset 12
	popl	%edi
	.cfi_restore 7
	.cfi_def_cfa_offset 8
	popl	%ebp
	.cfi_restore 5
	.cfi_def_cfa_offset 4
	ret
	.p2align 4,,10
L1568:
	.cfi_restore_state
	movl	$LC99, %ecx
	movl	$200, %edx
	movl	%ebx, %eax
	call	_errorlimit
	.p2align 4,,10
L1569:
	movl	24(%esi), %edx
	movl	52(%edi), %eax
	leal	56(%esi), %ecx
	movl	$LC100, 8(%esp)
	movl	$32767, 4(%esp)
	movl	$12, (%esp)
	call	_luaM_growaux_
	movl	56(%esi), %ecx
	cmpl	%ecx, 28(%esp)
	movl	%eax, 24(%esi)
	jge	L1567
	movl	28(%esp), %edx
	leal	(%ecx,%ecx,2), %ecx
	leal	(%edx,%edx,2), %edx
	leal	(%eax,%edx,4), %edx
	leal	(%eax,%ecx,4), %eax
	.p2align 4,,10
L1556:
	movl	$0, (%edx)
	addl	$12, %edx
	cmpl	%edx, %eax
	jne	L1556
L1567:
	movswl	48(%ebx), %edx
	movl	%edx, %eax
	jmp	L1554
L1570:
	movl	%ebp, %edx
	call	_reallymarkobject
	movzwl	48(%ebx), %eax
	jmp	L1557
	.cfi_endproc
LFE279:
	.section	.text.unlikely,"x"
LCOLDE101:
	.text
LHOTE101:
	.section .rdata,"dr"
LC102:
	.ascii "upvalues\0"
	.section	.text.unlikely,"x"
LCOLDB103:
	.text
LHOTB103:
	.p2align 4,,15
	.def	_singlevaraux;	.scl	3;	.type	32;	.endef
_singlevaraux:
LFB285:
	.cfi_startproc
	testl	%eax, %eax
	je	L1621
	pushl	%ebp
	.cfi_def_cfa_offset 8
	.cfi_offset 5, -8
	pushl	%edi
	.cfi_def_cfa_offset 12
	.cfi_offset 7, -12
	pushl	%esi
	.cfi_def_cfa_offset 16
	.cfi_offset 6, -16
	pushl	%ebx
	.cfi_def_cfa_offset 20
	.cfi_offset 3, -20
	subl	$44, %esp
	.cfi_def_cfa_offset 64
	movzbl	50(%eax), %ebx
	leal	-1(%ebx), %edi
	cmpl	$-1, %edi
	je	L1574
	movl	(%eax), %esi
	movzwl	170(%eax,%ebx,2), %ebx
	movl	24(%esi), %esi
	leal	(%ebx,%ebx,2), %ebx
	cmpl	(%esi,%ebx,4), %edx
	jne	L1577
	jmp	L1575
	.p2align 4,,10
L1578:
	movzwl	172(%eax,%edi,2), %ebx
	leal	(%ebx,%ebx,2), %ebx
	cmpl	(%esi,%ebx,4), %edx
	je	L1575
L1577:
	subl	$1, %edi
	cmpl	$-1, %edi
	jne	L1578
L1574:
	movl	%eax, %ebx
	movl	8(%eax), %eax
	movl	$0, (%esp)
	movl	%ecx, %esi
	movl	%edx, 24(%esp)
	call	_singlevaraux
	cmpl	$8, %eax
	je	L1602
	movl	(%ebx), %eax
	movzbl	72(%eax), %edi
	movl	%eax, 28(%esp)
	testl	%edi, %edi
	je	L1581
	movl	(%esi), %ebp
	leal	51(%ebx), %eax
	xorl	%edx, %edx
	jmp	L1584
	.p2align 4,,10
L1582:
	addl	$1, %edx
	addl	$2, %eax
	cmpl	%edi, %edx
	je	L1622
L1584:
	movzbl	(%eax), %ecx
	cmpl	%ebp, %ecx
	jne	L1582
	movzbl	1(%eax), %ecx
	cmpl	8(%esi), %ecx
	jne	L1582
	movl	%edx, %eax
	jmp	L1583
	.p2align 4,,10
L1575:
	movl	64(%esp), %edx
	movl	$-1, 16(%ecx)
	movl	$-1, 20(%ecx)
	movl	$6, (%ecx)
	movl	%edi, 8(%ecx)
	testl	%edx, %edx
	jne	L1620
	movl	20(%eax), %eax
	testl	%eax, %eax
	jne	L1619
	jmp	L1620
	.p2align 4,,10
L1623:
	movl	(%eax), %eax
	testl	%eax, %eax
	je	L1620
L1619:
	movzbl	8(%eax), %edx
	cmpl	%edi, %edx
	jg	L1623
	movb	$1, 9(%eax)
L1620:
	movl	$6, %eax
L1602:
	addl	$44, %esp
	.cfi_def_cfa_offset 20
	popl	%ebx
	.cfi_restore 3
	.cfi_def_cfa_offset 16
	popl	%esi
	.cfi_restore 6
	.cfi_def_cfa_offset 12
	popl	%edi
	.cfi_restore 7
	.cfi_def_cfa_offset 8
	popl	%ebp
	.cfi_restore 5
	.cfi_def_cfa_offset 4
	ret
	.p2align 4,,10
L1621:
	movl	$-1, 16(%ecx)
	movl	$-1, 20(%ecx)
	movl	$8, %eax
	movl	$8, (%ecx)
	movl	$255, 8(%ecx)
	ret
L1622:
	.cfi_def_cfa_offset 64
	.cfi_offset 3, -20
	.cfi_offset 5, -8
	.cfi_offset 6, -16
	.cfi_offset 7, -12
	cmpl	$60, %edx
	je	L1624
L1581:
	movl	28(%esp), %eax
	movl	36(%eax), %ebp
	cmpl	%edi, %ebp
	jle	L1585
	movl	28(%eax), %eax
L1586:
	movl	24(%esp), %ecx
	movl	%ecx, (%eax,%edi,4)
	testb	$3, 5(%ecx)
	je	L1590
	movl	28(%esp), %eax
	movzbl	5(%eax), %edx
	testb	$4, %dl
	je	L1590
	movl	16(%ebx), %eax
	movl	16(%eax), %eax
	cmpb	$1, 21(%eax)
	je	L1625
	movzbl	20(%eax), %eax
	movl	28(%esp), %ecx
	andl	$-8, %edx
	andl	$3, %eax
	orl	%edx, %eax
	movb	%al, 5(%ecx)
L1590:
	movl	28(%esp), %ecx
	movl	(%esi), %edx
	movzbl	72(%ecx), %eax
	movb	%dl, 51(%ebx,%eax,2)
	movzbl	72(%ecx), %eax
	movl	8(%esi), %edx
	movb	%dl, 52(%ebx,%eax,2)
	movzbl	72(%ecx), %eax
	leal	1(%eax), %edx
	movb	%dl, 72(%ecx)
L1583:
	movl	%eax, 8(%esi)
	movl	$7, (%esi)
	movl	$7, %eax
	jmp	L1602
L1624:
	movl	$LC102, %ecx
	movl	%ebx, %eax
	call	_errorlimit
L1585:
	movl	28(%eax), %edx
	movl	%eax, %edi
	leal	36(%eax), %ecx
	movl	16(%ebx), %eax
	movl	$LC75, 8(%esp)
	movl	$2147483645, 4(%esp)
	movl	$4, (%esp)
	call	_luaM_growaux_
	movl	36(%edi), %ecx
	movl	%eax, 28(%edi)
	cmpl	%ecx, %ebp
	jge	L1587
	leal	0(,%ebp,4), %edx
	jmp	L1588
	.p2align 4,,10
L1626:
	movl	28(%edi), %eax
L1588:
	addl	$1, %ebp
	movl	$0, (%eax,%edx)
	addl	$4, %edx
	cmpl	%ecx, %ebp
	jne	L1626
	movl	28(%esp), %ecx
	movl	28(%ecx), %eax
	movzbl	72(%ecx), %edi
	jmp	L1586
L1625:
	movl	%ecx, %edx
	call	_reallymarkobject
	jmp	L1590
L1587:
	movl	28(%esp), %ecx
	movzbl	72(%ecx), %edi
	jmp	L1586
	.cfi_endproc
LFE285:
	.section	.text.unlikely,"x"
LCOLDE103:
	.text
LHOTE103:
	.section .rdata,"dr"
LC104:
	.ascii "lexical element too long\0"
	.section	.text.unlikely,"x"
LCOLDB105:
	.text
LHOTB105:
	.p2align 4,,15
	.def	_save;	.scl	3;	.type	32;	.endef
_save:
LFB193:
	.cfi_startproc
	pushl	%ebp
	.cfi_def_cfa_offset 8
	.cfi_offset 5, -8
	pushl	%edi
	.cfi_def_cfa_offset 12
	.cfi_offset 7, -12
	movl	%edx, %edi
	pushl	%esi
	.cfi_def_cfa_offset 16
	.cfi_offset 6, -16
	pushl	%ebx
	.cfi_def_cfa_offset 20
	.cfi_offset 3, -20
	subl	$124, %esp
	.cfi_def_cfa_offset 144
	movl	60(%eax), %ebx
	movl	4(%ebx), %edx
	movl	8(%ebx), %ecx
	leal	1(%edx), %ebp
	cmpl	%ecx, %ebp
	jbe	L1632
	cmpl	$2147483645, %ecx
	movl	%eax, %esi
	ja	L1633
	leal	(%ecx,%ecx), %ebp
	movl	52(%eax), %eax
	movl	%ebp, (%esp)
	movl	(%ebx), %edx
	call	_luaM_realloc_
	movl	4(%ebx), %edx
	movl	%ebp, 8(%ebx)
	movl	%edi, %ecx
	movl	%eax, (%ebx)
	leal	1(%edx), %ebp
	movl	%ebp, 4(%ebx)
	movb	%cl, (%eax,%edx)
	addl	$124, %esp
	.cfi_remember_state
	.cfi_def_cfa_offset 20
	popl	%ebx
	.cfi_restore 3
	.cfi_def_cfa_offset 16
	popl	%esi
	.cfi_restore 6
	.cfi_def_cfa_offset 12
	popl	%edi
	.cfi_restore 7
	.cfi_def_cfa_offset 8
	popl	%ebp
	.cfi_restore 5
	.cfi_def_cfa_offset 4
	ret
	.p2align 4,,10
L1632:
	.cfi_restore_state
	movl	(%ebx), %eax
	movl	%edi, %ecx
	movl	%ebp, 4(%ebx)
	movb	%cl, (%eax,%edx)
	addl	$124, %esp
	.cfi_remember_state
	.cfi_def_cfa_offset 20
	popl	%ebx
	.cfi_restore 3
	.cfi_def_cfa_offset 16
	popl	%esi
	.cfi_restore 6
	.cfi_def_cfa_offset 12
	popl	%edi
	.cfi_restore 7
	.cfi_def_cfa_offset 8
	popl	%ebp
	.cfi_restore 5
	.cfi_def_cfa_offset 4
	ret
	.p2align 4,,10
L1633:
	.cfi_restore_state
	movl	64(%eax), %eax
	leal	32(%esp), %ebx
	movl	$80, %ecx
	leal	16(%eax), %edx
	movl	%ebx, %eax
	call	_luaO_chunkid
	movl	$LC104, 16(%esp)
	movl	4(%esi), %eax
	movl	%ebx, 8(%esp)
	movl	$LC42, 4(%esp)
	movl	%eax, 12(%esp)
	movl	52(%esi), %eax
	movl	%eax, (%esp)
	call	_luaO_pushfstring
	movl	52(%esi), %eax
	movl	$3, %edx
	call	_luaD_throw
	.cfi_endproc
LFE193:
	.section	.text.unlikely,"x"
LCOLDE105:
	.text
LHOTE105:
	.section .rdata,"dr"
LC106:
	.ascii "char(%d)\0"
LC107:
	.ascii "%c\0"
LC108:
	.ascii "%s near '%s'\0"
	.section	.text.unlikely,"x"
LCOLDB109:
	.text
LHOTB109:
	.p2align 4,,15
	.def	_luaX_lexerror;	.scl	3;	.type	32;	.endef
_luaX_lexerror:
LFB197:
	.cfi_startproc
	pushl	%ebp
	.cfi_def_cfa_offset 8
	.cfi_offset 5, -8
	pushl	%edi
	.cfi_def_cfa_offset 12
	.cfi_offset 7, -12
	movl	%edx, %ebp
	pushl	%esi
	.cfi_def_cfa_offset 16
	.cfi_offset 6, -16
	pushl	%ebx
	.cfi_def_cfa_offset 20
	.cfi_offset 3, -20
	movl	%eax, %ebx
	movl	%ecx, %edi
	movl	$80, %ecx
	subl	$124, %esp
	.cfi_def_cfa_offset 144
	movl	64(%eax), %eax
	leal	32(%esp), %esi
	leal	16(%eax), %edx
	movl	%esi, %eax
	call	_luaO_chunkid
	movl	4(%ebx), %eax
	movl	%ebp, 16(%esp)
	movl	%esi, 8(%esp)
	movl	$LC42, 4(%esp)
	movl	%eax, 12(%esp)
	movl	52(%ebx), %eax
	movl	%eax, (%esp)
	call	_luaO_pushfstring
	testl	%edi, %edi
	jne	L1645
L1635:
	movl	52(%ebx), %eax
	movl	$3, %edx
	call	_luaD_throw
L1645:
	movl	%eax, %esi
	leal	-284(%edi), %eax
	cmpl	$2, %eax
	jbe	L1646
	cmpl	$256, %edi
	jg	L1639
	movl	%edi, (%esp)
	call	*__imp__iscntrl
	testl	%eax, %eax
	movl	%edi, 8(%esp)
	je	L1640
	movl	52(%ebx), %eax
	movl	$LC106, 4(%esp)
	movl	%eax, (%esp)
	call	_luaO_pushfstring
	jmp	L1638
L1639:
	movl	_luaX_tokens-1028(,%edi,4), %eax
L1638:
	movl	%eax, 12(%esp)
	movl	52(%ebx), %eax
	movl	%esi, 8(%esp)
	movl	$LC108, 4(%esp)
	movl	%eax, (%esp)
	call	_luaO_pushfstring
	jmp	L1635
L1646:
	movl	%ebx, %eax
	xorl	%edx, %edx
	call	_save
	movl	60(%ebx), %eax
	movl	(%eax), %eax
	jmp	L1638
L1640:
	movl	52(%ebx), %eax
	movl	$LC107, 4(%esp)
	movl	%eax, (%esp)
	call	_luaO_pushfstring
	jmp	L1638
	.cfi_endproc
LFE197:
	.section	.text.unlikely,"x"
LCOLDE109:
	.text
LHOTE109:
	.section .rdata,"dr"
LC110:
	.ascii "chunk has too many lines\0"
	.section	.text.unlikely,"x"
LCOLDB111:
	.text
LHOTB111:
	.p2align 4,,15
	.def	_inclinenumber;	.scl	3;	.type	32;	.endef
_inclinenumber:
LFB200:
	.cfi_startproc
	pushl	%esi
	.cfi_def_cfa_offset 8
	.cfi_offset 6, -8
	pushl	%ebx
	.cfi_def_cfa_offset 12
	.cfi_offset 3, -12
	movl	%eax, %ebx
	subl	$4, %esp
	.cfi_def_cfa_offset 16
	movl	(%eax), %esi
	movl	56(%eax), %eax
	movl	(%eax), %edx
	leal	-1(%edx), %ecx
	testl	%edx, %edx
	movl	%ecx, (%eax)
	je	L1648
	movl	4(%eax), %edx
	leal	1(%edx), %ecx
	movl	%ecx, 4(%eax)
	movzbl	(%edx), %eax
L1649:
	cmpl	$10, %eax
	movl	%eax, (%ebx)
	sete	%cl
	cmpl	$13, %eax
	sete	%dl
	orb	%dl, %cl
	je	L1650
	cmpl	%esi, %eax
	je	L1650
	movl	56(%ebx), %eax
	movl	(%eax), %edx
	leal	-1(%edx), %ecx
	testl	%edx, %edx
	movl	%ecx, (%eax)
	je	L1651
	movl	4(%eax), %edx
	leal	1(%edx), %ecx
	movl	%ecx, 4(%eax)
	movzbl	(%edx), %eax
	movl	%eax, (%ebx)
L1650:
	movl	4(%ebx), %eax
	addl	$1, %eax
	cmpl	$2147483644, %eax
	movl	%eax, 4(%ebx)
	jg	L1661
	addl	$4, %esp
	.cfi_remember_state
	.cfi_def_cfa_offset 12
	popl	%ebx
	.cfi_restore 3
	.cfi_def_cfa_offset 8
	popl	%esi
	.cfi_restore 6
	.cfi_def_cfa_offset 4
	ret
	.p2align 4,,10
L1661:
	.cfi_restore_state
	movl	16(%ebx), %ecx
	movl	$LC110, %edx
	movl	%ebx, %eax
	call	_luaX_lexerror
	.p2align 4,,10
L1648:
	call	_luaZ_fill
	jmp	L1649
	.p2align 4,,10
L1651:
	call	_luaZ_fill
	movl	%eax, (%ebx)
	jmp	L1650
	.cfi_endproc
LFE200:
	.section	.text.unlikely,"x"
LCOLDE111:
	.text
LHOTE111:
	.section .rdata,"dr"
LC112:
	.ascii "control structure too long\0"
	.section	.text.unlikely,"x"
LCOLDB113:
	.text
LHOTB113:
	.p2align 4,,15
	.def	_luaK_concat;	.scl	3;	.type	32;	.endef
_luaK_concat:
LFB227:
	.cfi_startproc
	cmpl	$-1, %ecx
	je	L1677
	pushl	%ebp
	.cfi_def_cfa_offset 8
	.cfi_offset 5, -8
	pushl	%edi
	.cfi_def_cfa_offset 12
	.cfi_offset 7, -12
	pushl	%esi
	.cfi_def_cfa_offset 16
	.cfi_offset 6, -16
	pushl	%ebx
	.cfi_def_cfa_offset 20
	.cfi_offset 3, -20
	subl	$12, %esp
	.cfi_def_cfa_offset 32
	movl	(%edx), %ebx
	cmpl	$-1, %ebx
	je	L1678
	movl	(%eax), %edx
	movl	12(%edx), %ebp
	.p2align 4,,10
L1666:
	leal	0(%ebp,%ebx,4), %edi
	movl	(%edi), %esi
	movl	%esi, %edx
	shrl	$14, %edx
	subl	$131071, %edx
	cmpl	$-1, %edx
	je	L1679
	addl	$1, %ebx
	addl	%ebx, %edx
	cmpl	$-1, %edx
	je	L1665
	movl	%edx, %ebx
	jmp	L1666
	.p2align 4,,10
L1679:
	addl	$1, %ebx
L1665:
	subl	%ebx, %ecx
	movl	%ecx, %ebx
	sarl	$31, %ebx
	movl	%ebx, %edx
	xorl	%ecx, %edx
	subl	%ebx, %edx
	cmpl	$131071, %edx
	jg	L1680
	addl	$131071, %ecx
	andl	$16383, %esi
	sall	$14, %ecx
	orl	%ecx, %esi
	movl	%esi, (%edi)
L1662:
	addl	$12, %esp
	.cfi_def_cfa_offset 20
	popl	%ebx
	.cfi_restore 3
	.cfi_def_cfa_offset 16
	popl	%esi
	.cfi_restore 6
	.cfi_def_cfa_offset 12
	popl	%edi
	.cfi_restore 7
	.cfi_def_cfa_offset 8
	popl	%ebp
	.cfi_restore 5
	.cfi_def_cfa_offset 4
L1677:
	rep ret
	.p2align 4,,10
L1680:
	.cfi_def_cfa_offset 32
	.cfi_offset 3, -20
	.cfi_offset 5, -8
	.cfi_offset 6, -16
	.cfi_offset 7, -12
	movl	12(%eax), %eax
	movl	$LC112, %edx
	movl	16(%eax), %ecx
	call	_luaX_lexerror
	.p2align 4,,10
L1678:
	movl	%ecx, (%edx)
	jmp	L1662
	.cfi_endproc
LFE227:
	.section	.text.unlikely,"x"
LCOLDE113:
	.text
LHOTE113:
	.section .rdata,"dr"
	.align 4
LC114:
	.ascii "function or expression too complex\0"
	.section	.text.unlikely,"x"
LCOLDB115:
	.text
LHOTB115:
	.p2align 4,,15
	.def	_luaK_checkstack;	.scl	3;	.type	32;	.endef
_luaK_checkstack:
LFB228:
	.cfi_startproc
	pushl	%ebx
	.cfi_def_cfa_offset 8
	.cfi_offset 3, -8
	subl	$8, %esp
	.cfi_def_cfa_offset 16
	movl	(%eax), %ecx
	addl	36(%eax), %edx
	movzbl	75(%ecx), %ebx
	cmpl	%ebx, %edx
	jle	L1681
	cmpl	$249, %edx
	jg	L1685
	movb	%dl, 75(%ecx)
L1681:
	addl	$8, %esp
	.cfi_remember_state
	.cfi_def_cfa_offset 8
	popl	%ebx
	.cfi_restore 3
	.cfi_def_cfa_offset 4
	ret
	.p2align 4,,10
L1685:
	.cfi_restore_state
	movl	12(%eax), %eax
	movl	$LC114, %edx
	movl	16(%eax), %ecx
	call	_luaX_lexerror
	.cfi_endproc
LFE228:
	.section	.text.unlikely,"x"
LCOLDE115:
	.text
LHOTE115:
	.section	.text.unlikely,"x"
LCOLDB116:
	.text
LHOTB116:
	.p2align 4,,15
	.def	_luaK_setreturns.isra.92;	.scl	3;	.type	32;	.endef
_luaK_setreturns.isra.92:
LFB656:
	.cfi_startproc
	cmpl	$13, %edx
	pushl	%edi
	.cfi_def_cfa_offset 8
	.cfi_offset 7, -8
	pushl	%esi
	.cfi_def_cfa_offset 12
	.cfi_offset 6, -12
	pushl	%ebx
	.cfi_def_cfa_offset 16
	.cfi_offset 3, -16
	je	L1690
	cmpl	$14, %edx
	je	L1691
	popl	%ebx
	.cfi_remember_state
	.cfi_restore 3
	.cfi_def_cfa_offset 12
	popl	%esi
	.cfi_restore 6
	.cfi_def_cfa_offset 8
	popl	%edi
	.cfi_restore 7
	.cfi_def_cfa_offset 4
	ret
	.p2align 4,,10
L1690:
	.cfi_restore_state
	movl	(%eax), %eax
	movl	(%ecx), %edx
	movl	12(%eax), %eax
	leal	(%eax,%edx,4), %ecx
	movl	16(%esp), %eax
	movl	(%ecx), %edx
	addl	$1, %eax
	sall	$14, %eax
	andl	$8372224, %eax
	andl	$-8372225, %edx
	orl	%edx, %eax
	movl	%eax, (%ecx)
	popl	%ebx
	.cfi_remember_state
	.cfi_restore 3
	.cfi_def_cfa_offset 12
	popl	%esi
	.cfi_restore 6
	.cfi_def_cfa_offset 8
	popl	%edi
	.cfi_restore 7
	.cfi_def_cfa_offset 4
	ret
	.p2align 4,,10
L1691:
	.cfi_restore_state
	movl	%eax, %ebx
	movl	(%eax), %eax
	movl	(%ecx), %edx
	movl	12(%eax), %eax
	leal	(%eax,%edx,4), %esi
	movl	16(%esp), %edx
	movl	(%esi), %edi
	addl	$1, %edx
	sall	$23, %edx
	andl	$8388607, %edi
	orl	%edi, %edx
	movl	%edx, (%esi)
	movl	(%ecx), %edx
	leal	(%eax,%edx,4), %ecx
	movl	36(%ebx), %eax
	movl	(%ecx), %edx
	sall	$6, %eax
	andl	$16320, %eax
	andl	$-16321, %edx
	orl	%edx, %eax
	movl	$1, %edx
	movl	%eax, (%ecx)
	movl	%ebx, %eax
	call	_luaK_checkstack
	addl	$1, 36(%ebx)
	popl	%ebx
	.cfi_restore 3
	.cfi_def_cfa_offset 12
	popl	%esi
	.cfi_restore 6
	.cfi_def_cfa_offset 8
	popl	%edi
	.cfi_restore 7
	.cfi_def_cfa_offset 4
	ret
	.cfi_endproc
LFE656:
	.section	.text.unlikely,"x"
LCOLDE116:
	.text
LHOTE116:
	.section	.text.unlikely,"x"
LCOLDB117:
	.text
LHOTB117:
	.p2align 4,,15
	.def	_patchlistaux;	.scl	3;	.type	32;	.endef
_patchlistaux:
LFB223:
	.cfi_startproc
	pushl	%ebp
	.cfi_def_cfa_offset 8
	.cfi_offset 5, -8
	pushl	%edi
	.cfi_def_cfa_offset 12
	.cfi_offset 7, -12
	pushl	%esi
	.cfi_def_cfa_offset 16
	.cfi_offset 6, -16
	pushl	%ebx
	.cfi_def_cfa_offset 20
	.cfi_offset 3, -20
	subl	$28, %esp
	.cfi_def_cfa_offset 48
	cmpl	$-1, %edx
	movl	%ecx, 4(%esp)
	je	L1692
	movl	%eax, %ebp
	movl	(%eax), %eax
	movl	%ebp, 8(%esp)
	movl	12(%eax), %eax
	movl	%eax, (%esp)
	movl	48(%esp), %eax
	sall	$6, %eax
	andl	$16320, %eax
	movl	%eax, 12(%esp)
L1702:
	movl	(%esp), %eax
	leal	1(%edx), %esi
	leal	(%eax,%edx,4), %ecx
	movl	(%ecx), %ebx
	movl	%ebx, %edi
	shrl	$14, %edi
	subl	$131071, %edi
	leal	(%edi,%esi), %eax
	cmpl	$-1, %edi
	movl	$-1, %edi
	cmove	%edi, %eax
	testl	%edx, %edx
	jle	L1709
	movl	-4(%ecx), %edx
	leal	-4(%ecx), %ebp
	movl	%edx, %edi
	andl	$63, %edi
	cmpb	$0, _luaP_opmodes(%edi)
	js	L1696
L1709:
	movl	%ebx, %edx
	movl	%ecx, %ebp
L1696:
	movl	%edx, %edi
	andl	$63, %edi
	cmpl	$27, %edi
	je	L1715
	movl	52(%esp), %edx
	subl	%esi, %edx
	movl	%edx, %edi
	sarl	$31, %edi
	movl	%edi, %esi
	xorl	%edx, %esi
	subl	%edi, %esi
	cmpl	$131071, %esi
	jg	L1714
	addl	$131071, %edx
	andl	$16383, %ebx
	sall	$14, %edx
	orl	%edx, %ebx
	movl	%ebx, (%ecx)
L1701:
	cmpl	$-1, %eax
	je	L1692
	movl	%eax, %edx
	jmp	L1702
	.p2align 4,,10
L1692:
	addl	$28, %esp
	.cfi_remember_state
	.cfi_def_cfa_offset 20
	popl	%ebx
	.cfi_restore 3
	.cfi_def_cfa_offset 16
	popl	%esi
	.cfi_restore 6
	.cfi_def_cfa_offset 12
	popl	%edi
	.cfi_restore 7
	.cfi_def_cfa_offset 8
	popl	%ebp
	.cfi_restore 5
	.cfi_def_cfa_offset 4
	ret
	.p2align 4,,10
L1714:
	.cfi_restore_state
	movl	8(%esp), %ebp
	movl	$LC112, %edx
	movl	12(%ebp), %eax
	movl	16(%eax), %ecx
	call	_luaX_lexerror
	.p2align 4,,10
L1715:
	movl	%edx, %ebx
	shrl	$23, %ebx
	cmpl	$255, 48(%esp)
	je	L1699
	cmpl	%ebx, 48(%esp)
	je	L1699
	movl	12(%esp), %ebx
	andl	$-16321, %edx
	orl	%edx, %ebx
L1700:
	movl	4(%esp), %edx
	movl	%ebx, 0(%ebp)
	subl	%esi, %edx
	movl	%edx, %esi
	sarl	$31, %esi
	movl	%esi, %ebx
	xorl	%edx, %ebx
	subl	%esi, %ebx
	cmpl	$131071, %ebx
	jg	L1714
	movl	(%ecx), %ebx
	addl	$131071, %edx
	sall	$14, %edx
	andl	$16383, %ebx
	orl	%ebx, %edx
	movl	%edx, (%ecx)
	jmp	L1701
	.p2align 4,,10
L1699:
	andl	$8372224, %edx
	sall	$6, %ebx
	orl	$26, %edx
	orl	%edx, %ebx
	jmp	L1700
	.cfi_endproc
LFE223:
	.section	.text.unlikely,"x"
LCOLDE117:
	.text
LHOTE117:
	.section .rdata,"dr"
LC118:
	.ascii "code size overflow\0"
	.section	.text.unlikely,"x"
LCOLDB119:
	.text
LHOTB119:
	.p2align 4,,15
	.def	_luaK_code;	.scl	3;	.type	32;	.endef
_luaK_code:
LFB263:
	.cfi_startproc
	pushl	%ebp
	.cfi_def_cfa_offset 8
	.cfi_offset 5, -8
	pushl	%edi
	.cfi_def_cfa_offset 12
	.cfi_offset 7, -12
	movl	%ecx, %edi
	pushl	%esi
	.cfi_def_cfa_offset 16
	.cfi_offset 6, -16
	pushl	%ebx
	.cfi_def_cfa_offset 20
	.cfi_offset 3, -20
	movl	%edx, %ebp
	movl	%eax, %ebx
	subl	$28, %esp
	.cfi_def_cfa_offset 48
	movl	24(%eax), %ecx
	movl	(%eax), %esi
	movl	32(%eax), %edx
	movl	$255, (%esp)
	movl	%ecx, 4(%esp)
	call	_patchlistaux
	movl	24(%ebx), %edx
	cmpl	44(%esi), %edx
	movl	$-1, 32(%ebx)
	jge	L1717
	movl	12(%esi), %eax
L1718:
	movl	%ebp, (%eax,%edx,4)
	movl	24(%ebx), %edx
	cmpl	48(%esi), %edx
	jge	L1719
	movl	20(%esi), %eax
L1720:
	movl	%edi, (%eax,%edx,4)
	movl	24(%ebx), %eax
	leal	1(%eax), %edx
	movl	%edx, 24(%ebx)
	addl	$28, %esp
	.cfi_remember_state
	.cfi_def_cfa_offset 20
	popl	%ebx
	.cfi_restore 3
	.cfi_def_cfa_offset 16
	popl	%esi
	.cfi_restore 6
	.cfi_def_cfa_offset 12
	popl	%edi
	.cfi_restore 7
	.cfi_def_cfa_offset 8
	popl	%ebp
	.cfi_restore 5
	.cfi_def_cfa_offset 4
	ret
	.p2align 4,,10
L1719:
	.cfi_restore_state
	movl	20(%esi), %edx
	movl	16(%ebx), %eax
	leal	48(%esi), %ecx
	movl	$LC118, 8(%esp)
	movl	$2147483645, 4(%esp)
	movl	$4, (%esp)
	call	_luaM_growaux_
	movl	24(%ebx), %edx
	movl	%eax, 20(%esi)
	jmp	L1720
	.p2align 4,,10
L1717:
	movl	12(%esi), %edx
	movl	16(%ebx), %eax
	leal	44(%esi), %ecx
	movl	$LC118, 8(%esp)
	movl	$2147483645, 4(%esp)
	movl	$4, (%esp)
	call	_luaM_growaux_
	movl	24(%ebx), %edx
	movl	%eax, 12(%esi)
	jmp	L1718
	.cfi_endproc
LFE263:
	.section	.text.unlikely,"x"
LCOLDE119:
	.text
LHOTE119:
	.section	.text.unlikely,"x"
LCOLDB120:
	.text
LHOTB120:
	.p2align 4,,15
	.def	_luaK_dischargevars;	.scl	3;	.type	32;	.endef
_luaK_dischargevars:
LFB239:
	.cfi_startproc
	pushl	%esi
	.cfi_def_cfa_offset 8
	.cfi_offset 6, -8
	pushl	%ebx
	.cfi_def_cfa_offset 12
	.cfi_offset 3, -12
	subl	$4, %esp
	.cfi_def_cfa_offset 16
	movl	(%edx), %esi
	leal	-6(%esi), %ecx
	cmpl	$8, %ecx
	ja	L1722
	movl	%edx, %ebx
	jmp	*L1725(,%ecx,4)
	.section .rdata,"dr"
	.align 4
L1725:
	.long	L1724
	.long	L1726
	.long	L1727
	.long	L1728
	.long	L1722
	.long	L1722
	.long	L1722
	.long	L1729
	.long	L1729
	.text
	.p2align 4,,10
L1728:
	movl	12(%edx), %edx
	testb	$1, %dh
	je	L1734
L1730:
	movl	8(%ebx), %esi
	testl	$256, %esi
	je	L1735
L1731:
	movl	12(%eax), %edx
	sall	$23, %esi
	movl	8(%edx), %ecx
	movl	12(%ebx), %edx
	sall	$14, %edx
	orl	$6, %edx
	orl	%esi, %edx
	call	_luaK_code
	movl	$11, (%ebx)
	movl	%eax, 8(%ebx)
L1722:
	addl	$4, %esp
	.cfi_remember_state
	.cfi_def_cfa_offset 12
	popl	%ebx
	.cfi_restore 3
	.cfi_def_cfa_offset 8
	popl	%esi
	.cfi_restore 6
	.cfi_def_cfa_offset 4
	ret
	.p2align 4,,10
L1729:
	.cfi_restore_state
	cmpl	$13, %esi
	je	L1736
	movl	(%eax), %eax
	movl	8(%edx), %edx
	movl	12(%eax), %eax
	leal	(%eax,%edx,4), %edx
	movl	(%edx), %eax
	andl	$8388607, %eax
	orl	$16777216, %eax
	movl	%eax, (%edx)
	movl	$11, (%ebx)
	jmp	L1722
	.p2align 4,,10
L1724:
	movl	$12, (%edx)
	addl	$4, %esp
	.cfi_remember_state
	.cfi_def_cfa_offset 12
	popl	%ebx
	.cfi_restore 3
	.cfi_def_cfa_offset 8
	popl	%esi
	.cfi_restore 6
	.cfi_def_cfa_offset 4
	ret
	.p2align 4,,10
L1726:
	.cfi_restore_state
	movl	12(%eax), %edx
	movl	8(%edx), %ecx
	movl	8(%ebx), %edx
	sall	$23, %edx
	orl	$4, %edx
	call	_luaK_code
	movl	$11, (%ebx)
	movl	%eax, 8(%ebx)
	addl	$4, %esp
	.cfi_remember_state
	.cfi_def_cfa_offset 12
	popl	%ebx
	.cfi_restore 3
	.cfi_def_cfa_offset 8
	popl	%esi
	.cfi_restore 6
	.cfi_def_cfa_offset 4
	ret
	.p2align 4,,10
L1727:
	.cfi_restore_state
	movl	12(%eax), %edx
	movl	8(%edx), %ecx
	movl	8(%ebx), %edx
	sall	$14, %edx
	orl	$5, %edx
	call	_luaK_code
	movl	$11, (%ebx)
	movl	%eax, 8(%ebx)
	addl	$4, %esp
	.cfi_remember_state
	.cfi_def_cfa_offset 12
	popl	%ebx
	.cfi_restore 3
	.cfi_def_cfa_offset 8
	popl	%esi
	.cfi_restore 6
	.cfi_def_cfa_offset 4
	ret
	.p2align 4,,10
L1735:
	.cfi_restore_state
	movzbl	50(%eax), %edx
	cmpl	%edx, %esi
	jl	L1731
	subl	$1, 36(%eax)
	movl	8(%ebx), %esi
	jmp	L1731
	.p2align 4,,10
L1734:
	movzbl	50(%eax), %ecx
	cmpl	%ecx, %edx
	jl	L1730
	subl	$1, 36(%eax)
	jmp	L1730
	.p2align 4,,10
L1736:
	movl	(%eax), %eax
	movl	$12, (%edx)
	movl	8(%edx), %edx
	movl	12(%eax), %eax
	movl	(%eax,%edx,4), %eax
	shrl	$6, %eax
	andl	$255, %eax
	movl	%eax, 8(%ebx)
	jmp	L1722
	.cfi_endproc
LFE239:
	.section	.text.unlikely,"x"
LCOLDE120:
	.text
LHOTE120:
	.section	.text.unlikely,"x"
LCOLDB121:
	.text
LHOTB121:
	.p2align 4,,15
	.def	_luaK_nil;	.scl	3;	.type	32;	.endef
_luaK_nil:
LFB212:
	.cfi_startproc
	pushl	%ebp
	.cfi_def_cfa_offset 8
	.cfi_offset 5, -8
	pushl	%edi
	.cfi_def_cfa_offset 12
	.cfi_offset 7, -12
	pushl	%esi
	.cfi_def_cfa_offset 16
	.cfi_offset 6, -16
	pushl	%ebx
	.cfi_def_cfa_offset 20
	.cfi_offset 3, -20
	movl	24(%eax), %ebx
	cmpl	28(%eax), %ebx
	jle	L1738
	testl	%ebx, %ebx
	jne	L1739
	movzbl	50(%eax), %ebx
	cmpl	%edx, %ebx
	jle	L1737
L1738:
	movl	12(%eax), %ebx
	movl	8(%ebx), %esi
	leal	-1(%edx,%ecx), %ebx
	sall	$6, %edx
	orl	$3, %edx
	sall	$23, %ebx
	orl	%ebx, %edx
	movl	%esi, %ecx
	popl	%ebx
	.cfi_remember_state
	.cfi_restore 3
	.cfi_def_cfa_offset 16
	popl	%esi
	.cfi_restore 6
	.cfi_def_cfa_offset 12
	popl	%edi
	.cfi_restore 7
	.cfi_def_cfa_offset 8
	popl	%ebp
	.cfi_restore 5
	.cfi_def_cfa_offset 4
	jmp	_luaK_code
	.p2align 4,,10
L1739:
	.cfi_restore_state
	movl	(%eax), %esi
	movl	12(%esi), %esi
	leal	-4(%esi,%ebx,4), %esi
	movl	(%esi), %edi
	movl	%edi, %ebx
	andl	$63, %edi
	cmpl	$3, %edi
	jne	L1738
	movl	%ebx, %edi
	movl	%ebx, %ebp
	shrl	$6, %edi
	movl	%edi, %ebx
	movzbl	%bl, %edi
	cmpl	%edi, %edx
	jl	L1738
	movl	%ebp, %edi
	movl	%ebp, %ebx
	shrl	$23, %edi
	leal	1(%edi), %ebp
	cmpl	%ebp, %edx
	jg	L1738
	leal	-1(%edx,%ecx), %eax
	cmpl	%eax, %edi
	jge	L1737
	andl	$8388607, %ebx
	sall	$23, %eax
	orl	%eax, %ebx
	movl	%ebx, (%esi)
L1737:
	popl	%ebx
	.cfi_restore 3
	.cfi_def_cfa_offset 16
	popl	%esi
	.cfi_restore 6
	.cfi_def_cfa_offset 12
	popl	%edi
	.cfi_restore 7
	.cfi_def_cfa_offset 8
	popl	%ebp
	.cfi_restore 5
	.cfi_def_cfa_offset 4
	ret
	.cfi_endproc
LFE212:
	.section	.text.unlikely,"x"
LCOLDE121:
	.text
LHOTE121:
	.section	.text.unlikely,"x"
LCOLDB122:
	.text
LHOTB122:
	.p2align 4,,15
	.def	_luaK_setlist;	.scl	3;	.type	32;	.endef
_luaK_setlist:
LFB266:
	.cfi_startproc
	subl	$1, %ecx
	pushl	%ebp
	.cfi_def_cfa_offset 8
	.cfi_offset 5, -8
	pushl	%edi
	.cfi_def_cfa_offset 12
	.cfi_offset 7, -12
	movl	%edx, %edi
	pushl	%esi
	.cfi_def_cfa_offset 16
	.cfi_offset 6, -16
	movl	$1374389535, %edx
	pushl	%ebx
	.cfi_def_cfa_offset 20
	.cfi_offset 3, -20
	movl	%eax, %esi
	movl	%ecx, %eax
	imull	%edx
	sarl	$31, %ecx
	movl	$0, %eax
	subl	$12, %esp
	.cfi_def_cfa_offset 32
	movl	32(%esp), %ebp
	sarl	$4, %edx
	subl	%ecx, %edx
	leal	1(%edx), %ebx
	movl	%ebp, %edx
	sall	$23, %edx
	cmpl	$-1, %ebp
	cmovne	%edx, %eax
	movl	12(%esi), %edx
	movl	8(%edx), %ecx
	movl	%edi, %edx
	sall	$6, %edx
	orl	$34, %edx
	cmpl	$511, %ebx
	jle	L1748
	orl	%eax, %edx
	movl	%esi, %eax
	addl	$1, %edi
	call	_luaK_code
	movl	12(%esi), %eax
	movl	%ebx, %edx
	movl	8(%eax), %ecx
	movl	%esi, %eax
	call	_luaK_code
	movl	%edi, 36(%esi)
	addl	$12, %esp
	.cfi_remember_state
	.cfi_def_cfa_offset 20
	popl	%ebx
	.cfi_restore 3
	.cfi_def_cfa_offset 16
	popl	%esi
	.cfi_restore 6
	.cfi_def_cfa_offset 12
	popl	%edi
	.cfi_restore 7
	.cfi_def_cfa_offset 8
	popl	%ebp
	.cfi_restore 5
	.cfi_def_cfa_offset 4
	ret
	.p2align 4,,10
L1748:
	.cfi_restore_state
	sall	$14, %ebx
	addl	$1, %edi
	orl	%ebx, %edx
	orl	%eax, %edx
	movl	%esi, %eax
	call	_luaK_code
	movl	%edi, 36(%esi)
	addl	$12, %esp
	.cfi_def_cfa_offset 20
	popl	%ebx
	.cfi_restore 3
	.cfi_def_cfa_offset 16
	popl	%esi
	.cfi_restore 6
	.cfi_def_cfa_offset 12
	popl	%edi
	.cfi_restore 7
	.cfi_def_cfa_offset 8
	popl	%ebp
	.cfi_restore 5
	.cfi_def_cfa_offset 4
	ret
	.cfi_endproc
LFE266:
	.section	.text.unlikely,"x"
LCOLDE122:
	.text
LHOTE122:
	.section	.text.unlikely,"x"
LCOLDB123:
	.text
LHOTB123:
	.p2align 4,,15
	.def	_luaK_jump;	.scl	3;	.type	32;	.endef
_luaK_jump:
LFB213:
	.cfi_startproc
	pushl	%esi
	.cfi_def_cfa_offset 8
	.cfi_offset 6, -8
	pushl	%ebx
	.cfi_def_cfa_offset 12
	.cfi_offset 3, -12
	movl	%eax, %ebx
	movl	$2147450902, %edx
	subl	$20, %esp
	.cfi_def_cfa_offset 32
	movl	32(%eax), %esi
	movl	$-1, 32(%eax)
	movl	12(%eax), %eax
	movl	8(%eax), %ecx
	movl	%ebx, %eax
	call	_luaK_code
	leal	12(%esp), %edx
	movl	%eax, 12(%esp)
	movl	%esi, %ecx
	movl	%ebx, %eax
	call	_luaK_concat
	movl	12(%esp), %eax
	addl	$20, %esp
	.cfi_def_cfa_offset 12
	popl	%ebx
	.cfi_restore 3
	.cfi_def_cfa_offset 8
	popl	%esi
	.cfi_restore 6
	.cfi_def_cfa_offset 4
	ret
	.cfi_endproc
LFE213:
	.section	.text.unlikely,"x"
LCOLDE123:
	.text
LHOTE123:
	.section	.text.unlikely,"x"
LCOLDB124:
	.text
LHOTB124:
	.p2align 4,,15
	.def	_leaveblock;	.scl	3;	.type	32;	.endef
_leaveblock:
LFB290:
	.cfi_startproc
	pushl	%ebp
	.cfi_def_cfa_offset 8
	.cfi_offset 5, -8
	pushl	%edi
	.cfi_def_cfa_offset 12
	.cfi_offset 7, -12
	pushl	%esi
	.cfi_def_cfa_offset 16
	.cfi_offset 6, -16
	pushl	%ebx
	.cfi_def_cfa_offset 20
	.cfi_offset 3, -20
	movl	%eax, %ebx
	subl	$28, %esp
	.cfi_def_cfa_offset 48
	movl	20(%eax), %eax
	movl	%eax, %edi
	movl	%eax, 8(%esp)
	movl	(%eax), %eax
	movl	%eax, 20(%ebx)
	movl	12(%ebx), %eax
	movzbl	8(%edi), %esi
	movl	48(%eax), %edx
	movl	%eax, 12(%esp)
	movzbl	50(%edx), %eax
	cmpb	8(%edi), %al
	jbe	L1756
	movl	(%edx), %ebp
	movl	24(%edx), %edi
	.p2align 4,,10
L1755:
	subl	$1, %eax
	movl	24(%ebp), %ecx
	movb	%al, 50(%edx)
	movzbl	%al, %eax
	movzwl	172(%edx,%eax,2), %eax
	leal	(%eax,%eax,2), %eax
	movl	%edi, 8(%ecx,%eax,4)
	movzbl	50(%edx), %ecx
	cmpl	%ecx, %esi
	movl	%ecx, %eax
	jl	L1755
L1756:
	movl	8(%esp), %eax
	cmpb	$0, 9(%eax)
	je	L1754
	movl	12(%esp), %eax
	movl	8(%eax), %ecx
	movl	8(%esp), %eax
	movzbl	8(%eax), %edx
	movl	%ebx, %eax
	sall	$6, %edx
	orl	$35, %edx
	call	_luaK_code
L1754:
	movzbl	50(%ebx), %eax
	leal	32(%ebx), %edx
	movl	%eax, 36(%ebx)
	movl	8(%esp), %eax
	movl	4(%eax), %ecx
	movl	24(%ebx), %eax
	movl	%eax, 28(%ebx)
	addl	$28, %esp
	.cfi_def_cfa_offset 20
	movl	%ebx, %eax
	popl	%ebx
	.cfi_restore 3
	.cfi_def_cfa_offset 16
	popl	%esi
	.cfi_restore 6
	.cfi_def_cfa_offset 12
	popl	%edi
	.cfi_restore 7
	.cfi_def_cfa_offset 8
	popl	%ebp
	.cfi_restore 5
	.cfi_def_cfa_offset 4
	jmp	_luaK_concat
	.cfi_endproc
LFE290:
	.section	.text.unlikely,"x"
LCOLDE124:
	.text
LHOTE124:
	.section	.text.unlikely,"x"
LCOLDB125:
	.text
LHOTB125:
	.p2align 4,,15
	.def	_skip_sep;	.scl	3;	.type	32;	.endef
_skip_sep:
LFB205:
	.cfi_startproc
	pushl	%edi
	.cfi_def_cfa_offset 8
	.cfi_offset 7, -8
	pushl	%esi
	.cfi_def_cfa_offset 12
	.cfi_offset 6, -12
	pushl	%ebx
	.cfi_def_cfa_offset 16
	.cfi_offset 3, -16
	movl	(%eax), %edi
	movl	%eax, %ebx
	movl	%edi, %edx
	call	_save
	movl	56(%ebx), %eax
	movl	(%eax), %edx
	leal	-1(%edx), %ecx
	testl	%edx, %edx
	movl	%ecx, (%eax)
	je	L1761
	movl	4(%eax), %edx
	leal	1(%edx), %ecx
	movl	%ecx, 4(%eax)
	movzbl	(%edx), %eax
L1762:
	xorl	%esi, %esi
	cmpl	$61, %eax
	movl	%eax, (%ebx)
	je	L1766
	jmp	L1763
	.p2align 4,,10
L1773:
	movl	4(%eax), %edx
	addl	$1, %esi
	leal	1(%edx), %ecx
	movl	%ecx, 4(%eax)
	movzbl	(%edx), %eax
	cmpl	$61, %eax
	movl	%eax, (%ebx)
	jne	L1763
L1766:
	movl	$61, %edx
	movl	%ebx, %eax
	call	_save
	movl	56(%ebx), %eax
	movl	(%eax), %edx
	leal	-1(%edx), %ecx
	testl	%edx, %edx
	movl	%ecx, (%eax)
	jne	L1773
	call	_luaZ_fill
	addl	$1, %esi
	cmpl	$61, %eax
	movl	%eax, (%ebx)
	je	L1766
L1763:
	movl	%esi, %edx
	cmpl	%eax, %edi
	movl	%esi, %eax
	notl	%edx
	popl	%ebx
	.cfi_remember_state
	.cfi_restore 3
	.cfi_def_cfa_offset 12
	cmovne	%edx, %eax
	popl	%esi
	.cfi_restore 6
	.cfi_def_cfa_offset 8
	popl	%edi
	.cfi_restore 7
	.cfi_def_cfa_offset 4
	ret
	.p2align 4,,10
L1761:
	.cfi_restore_state
	call	_luaZ_fill
	jmp	L1762
	.cfi_endproc
LFE205:
	.section	.text.unlikely,"x"
LCOLDE125:
	.text
LHOTE125:
	.section	.text.unlikely,"x"
LCOLDB126:
	.text
LHOTB126:
	.p2align 4,,15
	.def	_check_next;	.scl	3;	.type	32;	.endef
_check_next:
LFB202:
	.cfi_startproc
	pushl	%esi
	.cfi_def_cfa_offset 8
	.cfi_offset 6, -8
	pushl	%ebx
	.cfi_def_cfa_offset 12
	.cfi_offset 3, -12
	movl	%eax, %ebx
	subl	$20, %esp
	.cfi_def_cfa_offset 32
	movl	(%eax), %esi
	movl	%edx, (%esp)
	movl	%esi, 4(%esp)
	call	_strchr
	testl	%eax, %eax
	je	L1778
	movl	%esi, %edx
	movl	%ebx, %eax
	call	_save
	movl	56(%ebx), %eax
	movl	(%eax), %edx
	leal	-1(%edx), %ecx
	testl	%edx, %edx
	movl	%ecx, (%eax)
	je	L1776
	movl	4(%eax), %edx
	leal	1(%edx), %ecx
	movl	%ecx, 4(%eax)
	movzbl	(%edx), %eax
L1777:
	movl	%eax, (%ebx)
	addl	$20, %esp
	.cfi_remember_state
	.cfi_def_cfa_offset 12
	movl	$1, %eax
	popl	%ebx
	.cfi_restore 3
	.cfi_def_cfa_offset 8
	popl	%esi
	.cfi_restore 6
	.cfi_def_cfa_offset 4
	ret
	.p2align 4,,10
L1776:
	.cfi_restore_state
	call	_luaZ_fill
	jmp	L1777
	.p2align 4,,10
L1778:
	addl	$20, %esp
	.cfi_def_cfa_offset 12
	xorl	%eax, %eax
	popl	%ebx
	.cfi_restore 3
	.cfi_def_cfa_offset 8
	popl	%esi
	.cfi_restore 6
	.cfi_def_cfa_offset 4
	ret
	.cfi_endproc
LFE202:
	.section	.text.unlikely,"x"
LCOLDE126:
	.text
LHOTE126:
	.section .rdata,"dr"
LC127:
	.ascii "Ee\0"
LC128:
	.ascii "+-\0"
LC129:
	.ascii "malformed number\0"
	.section	.text.unlikely,"x"
LCOLDB130:
	.text
LHOTB130:
	.p2align 4,,15
	.def	_read_numeral;	.scl	3;	.type	32;	.endef
_read_numeral:
LFB204:
	.cfi_startproc
	pushl	%ebp
	.cfi_def_cfa_offset 8
	.cfi_offset 5, -8
	pushl	%edi
	.cfi_def_cfa_offset 12
	.cfi_offset 7, -12
	movl	%edx, %ebp
	pushl	%esi
	.cfi_def_cfa_offset 16
	.cfi_offset 6, -16
	pushl	%ebx
	.cfi_def_cfa_offset 20
	.cfi_offset 3, -20
	movl	%eax, %ebx
	subl	$76, %esp
	.cfi_def_cfa_offset 96
	movl	(%eax), %edx
	.p2align 4,,10
L1802:
	movl	%ebx, %eax
	call	_save
	movl	56(%ebx), %eax
	movl	(%eax), %edx
	leal	-1(%edx), %ecx
	testl	%edx, %edx
	movl	%ecx, (%eax)
	je	L1781
	movl	4(%eax), %edx
	leal	1(%edx), %ecx
	movl	%ecx, 4(%eax)
	movzbl	(%edx), %edx
L1782:
	leal	-48(%edx), %eax
	movl	%edx, (%ebx)
	cmpl	$9, %eax
	jbe	L1802
	cmpl	$46, %edx
	je	L1802
	movl	$LC127, %edx
	movl	%ebx, %eax
	call	_check_next
	testl	%eax, %eax
	jne	L1806
L1784:
	movl	(%ebx), %esi
	movl	__imp__isalnum, %edi
	.p2align 4,,10
L1785:
	movl	%esi, (%esp)
	call	*%edi
	cmpl	$95, %esi
	je	L1788
	testl	%eax, %eax
	je	L1807
L1788:
	movl	%esi, %edx
	movl	%ebx, %eax
	call	_save
	movl	56(%ebx), %eax
	movl	(%eax), %edx
	leal	-1(%edx), %ecx
	testl	%edx, %edx
	movl	%ecx, (%eax)
	je	L1786
	movl	4(%eax), %edx
	leal	1(%edx), %ecx
	movl	%ecx, 4(%eax)
	movzbl	(%edx), %esi
	movl	%esi, (%ebx)
	jmp	L1785
	.p2align 4,,10
L1786:
	call	_luaZ_fill
	movl	%eax, %esi
	movl	%esi, (%ebx)
	jmp	L1785
	.p2align 4,,10
L1781:
	call	_luaZ_fill
	movl	%eax, %edx
	jmp	L1782
	.p2align 4,,10
L1807:
	xorl	%edx, %edx
	movl	%ebx, %eax
	call	_save
	movl	60(%ebx), %edx
	movzbl	68(%ebx), %ecx
	movl	4(%edx), %eax
	movl	(%edx), %edx
	.p2align 4,,10
L1789:
	subl	$1, %eax
	cmpl	$-1, %eax
	je	L1808
L1791:
	cmpb	$46, (%edx,%eax)
	jne	L1789
	movb	%cl, (%edx,%eax)
	subl	$1, %eax
	cmpl	$-1, %eax
	jne	L1791
L1808:
	movl	60(%ebx), %eax
	leal	60(%esp), %edx
	movl	%edx, 36(%esp)
	movl	(%eax), %eax
	movl	%edx, 4(%esp)
	movl	%eax, (%esp)
	movl	%eax, 24(%esp)
	call	___strtod
	movl	60(%esp), %esi
	movl	24(%esp), %eax
	fstpl	0(%ebp)
	movl	36(%esp), %edx
	cmpl	%esi, %eax
	je	L1797
	movzbl	(%esi), %edi
	movl	%edi, %ecx
	andl	$-33, %ecx
	cmpb	$88, %cl
	je	L1809
L1793:
	movl	%edi, %eax
	testb	%al, %al
	je	L1780
	addl	$1, %esi
	movl	__imp__isspace, %ebp
	jmp	L1795
	.p2align 4,,10
L1796:
	movl	%esi, 60(%esp)
	addl	$1, %esi
	movzbl	-1(%esi), %edi
L1795:
	movl	%edi, %eax
	movzbl	%al, %eax
	movl	%eax, (%esp)
	call	*%ebp
	testl	%eax, %eax
	jne	L1796
	movl	%edi, %eax
	testb	%al, %al
	jne	L1797
L1780:
	addl	$76, %esp
	.cfi_remember_state
	.cfi_def_cfa_offset 20
	popl	%ebx
	.cfi_restore 3
	.cfi_def_cfa_offset 16
	popl	%esi
	.cfi_restore 6
	.cfi_def_cfa_offset 12
	popl	%edi
	.cfi_restore 7
	.cfi_def_cfa_offset 8
	popl	%ebp
	.cfi_restore 5
	.cfi_def_cfa_offset 4
	ret
	.p2align 4,,10
L1797:
	.cfi_restore_state
	movl	$284, %ecx
	movl	$LC129, %edx
	movl	%ebx, %eax
	call	_luaX_lexerror
	.p2align 4,,10
L1806:
	movl	$LC128, %edx
	movl	%ebx, %eax
	call	_check_next
	jmp	L1784
	.p2align 4,,10
L1809:
	movl	$16, 8(%esp)
	movl	%edx, 4(%esp)
	movl	%eax, (%esp)
	call	_strtoul
	movl	$0, 28(%esp)
	movl	%eax, 24(%esp)
	fildq	24(%esp)
	movl	60(%esp), %esi
	fstpl	0(%ebp)
	movzbl	(%esi), %edi
	jmp	L1793
	.cfi_endproc
LFE204:
	.section	.text.unlikely,"x"
LCOLDE130:
	.text
LHOTE130:
	.section	.text.unlikely,"x"
LCOLDB131:
	.text
LHOTB131:
	.p2align 4,,15
	.def	_f_luaopen;	.scl	3;	.type	32;	.endef
_f_luaopen:
LFB166:
	.cfi_startproc
	pushl	%ebp
	.cfi_def_cfa_offset 8
	.cfi_offset 5, -8
	pushl	%edi
	.cfi_def_cfa_offset 12
	.cfi_offset 7, -12
	xorl	%ecx, %ecx
	pushl	%esi
	.cfi_def_cfa_offset 16
	.cfi_offset 6, -16
	pushl	%ebx
	.cfi_def_cfa_offset 20
	.cfi_offset 3, -20
	xorl	%edx, %edx
	subl	$44, %esp
	.cfi_def_cfa_offset 64
	movl	64(%esp), %ebx
	movl	16(%ebx), %eax
	movl	$192, (%esp)
	movl	%eax, 28(%esp)
	movl	%ebx, %eax
	call	_luaM_realloc_
	movl	%eax, 40(%ebx)
	movl	%eax, 20(%ebx)
	addl	$168, %eax
	movl	%eax, 36(%ebx)
	xorl	%ecx, %ecx
	xorl	%edx, %edx
	movl	$8, 48(%ebx)
	movl	%ebx, %eax
	movl	$720, (%esp)
	call	_luaM_realloc_
	leal	624(%eax), %edx
	leal	16(%eax), %ecx
	movl	%eax, 32(%ebx)
	movl	$45, 44(%ebx)
	movl	%edx, 28(%ebx)
	movl	20(%ebx), %edx
	movl	%eax, 4(%edx)
	movl	%ecx, 8(%ebx)
	addl	$336, %eax
	movl	$0, -328(%eax)
	movl	%ecx, (%edx)
	movl	%ecx, 12(%ebx)
	movl	%eax, 8(%edx)
	movl	$2, %ecx
	xorl	%edx, %edx
	movl	%ebx, %eax
	call	_luaH_new
	movl	16(%ebx), %esi
	movl	%eax, 72(%ebx)
	xorl	%edx, %edx
	movl	$5, 80(%ebx)
	movl	$2, %ecx
	movl	%ebx, %eax
	call	_luaH_new
	movl	%eax, 96(%esi)
	movl	16(%ebx), %edi
	movl	$5, 104(%esi)
	cmpb	$2, 21(%edi)
	je	L1811
	xorl	%ecx, %ecx
	xorl	%edx, %edx
	movl	$128, (%esp)
	movl	%ebx, %eax
	call	_luaM_realloc_
	leal	4(%eax), %edi
	movl	%eax, %ecx
	movl	16(%ebx), %ebp
	movl	%eax, %esi
	movl	$0, (%eax)
	movl	$0, 124(%eax)
	andl	$-4, %edi
	xorl	%eax, %eax
	subl	%edi, %ecx
	subl	$-128, %ecx
	shrl	$2, %ecx
	rep stosl
	movl	8(%ebp), %ecx
	movl	0(%ebp), %edx
	testl	%ecx, %ecx
	jle	L1813
	xorl	%edi, %edi
	.p2align 4,,10
L1816:
	movl	(%edx,%edi,4), %eax
	testl	%eax, %eax
	je	L1814
	movl	%ebx, 64(%esp)
	.p2align 4,,10
L1815:
	movl	8(%eax), %edx
	movl	(%eax), %ecx
	andl	$31, %edx
	testl	%ecx, %ecx
	leal	(%esi,%edx,4), %edx
	movl	(%edx), %ebx
	movl	%ebx, (%eax)
	movl	%eax, (%edx)
	movl	%ecx, %eax
	jne	L1815
	movl	64(%esp), %ebx
	movl	0(%ebp), %edx
	movl	8(%ebp), %ecx
L1814:
	addl	$1, %edi
	cmpl	%ecx, %edi
	jl	L1816
L1813:
	sall	$2, %ecx
	movl	%ebx, %eax
	call	_luaM_realloc_.constprop.162
	movl	16(%ebx), %edi
	movl	$32, 8(%ebp)
	movl	%esi, 0(%ebp)
L1811:
	movl	$7, %ecx
	xorl	%esi, %esi
	jmp	L1819
	.p2align 4,,10
L1817:
	movl	_luaT_eventname.6010(,%esi,4), %eax
	movl	16(%ebx), %edi
	movl	%eax, (%esp)
	call	_strlen
	movl	%eax, %ecx
L1819:
	movl	_luaT_eventname.6010(,%esi,4), %edx
	movl	%ebx, %eax
	call	_luaS_newlstr
	leal	44(%esi), %edx
	addl	$1, %esi
	movl	%eax, 12(%edi,%edx,4)
	movl	16(%ebx), %eax
	movl	12(%eax,%edx,4), %eax
	orb	$32, 5(%eax)
	cmpl	$17, %esi
	jne	L1817
	movl	$1, %esi
	movl	%ebx, 64(%esp)
	movl	$3, %ecx
	movl	%esi, %ebx
	movl	64(%esp), %esi
	jmp	L1818
	.p2align 4,,10
L1827:
	movl	_luaX_tokens(,%ebx,4), %eax
	addl	$1, %ebx
	movl	%eax, (%esp)
	call	_strlen
	movl	%eax, %ecx
L1818:
	movl	_luaX_tokens-4(,%ebx,4), %edx
	movl	%esi, %eax
	call	_luaS_newlstr
	orb	$32, 5(%eax)
	cmpl	$21, %ebx
	movb	%bl, 6(%eax)
	jne	L1827
	movl	%esi, %eax
	movl	$17, %ecx
	movl	$LC46, %edx
	call	_luaS_newlstr
	movl	28(%esp), %edi
	orb	$32, 5(%eax)
	movl	68(%edi), %eax
	movl	%eax, 28(%esp)
	sall	$2, %eax
	movl	%eax, 64(%edi)
	addl	$44, %esp
	.cfi_def_cfa_offset 20
	popl	%ebx
	.cfi_restore 3
	.cfi_def_cfa_offset 16
	popl	%esi
	.cfi_restore 6
	.cfi_def_cfa_offset 12
	popl	%edi
	.cfi_restore 7
	.cfi_def_cfa_offset 8
	popl	%ebp
	.cfi_restore 5
	.cfi_def_cfa_offset 4
	ret
	.cfi_endproc
LFE166:
	.section	.text.unlikely,"x"
LCOLDE131:
	.text
LHOTE131:
	.section .rdata,"dr"
LC132:
	.ascii "table index is nil\0"
LC133:
	.ascii "table index is NaN\0"
	.section	.text.unlikely,"x"
LCOLDB134:
	.text
LHOTB134:
	.p2align 4,,15
	.def	_resize;	.scl	3;	.type	32;	.endef
_resize:
LFB120:
	.cfi_startproc
	pushl	%ebp
	.cfi_def_cfa_offset 8
	.cfi_offset 5, -8
	pushl	%edi
	.cfi_def_cfa_offset 12
	.cfi_offset 7, -12
	pushl	%esi
	.cfi_def_cfa_offset 16
	.cfi_offset 6, -16
	pushl	%ebx
	.cfi_def_cfa_offset 20
	.cfi_offset 3, -20
	movl	%ecx, %esi
	movl	%edx, %ebx
	subl	$60, %esp
	.cfi_def_cfa_offset 80
	movzbl	7(%edx), %ecx
	movl	%eax, 28(%esp)
	movl	28(%edx), %eax
	movl	80(%esp), %edi
	movl	%ecx, 36(%esp)
	movl	16(%edx), %ecx
	cmpl	%esi, %eax
	movl	%eax, 24(%esp)
	movl	%ecx, 32(%esp)
	jl	L1854
	movl	28(%esp), %eax
	movl	%edi, %ecx
	call	_setnodevector
	cmpl	%esi, 24(%esp)
	jle	L1830
	leal	1(%esi), %ecx
	movl	%esi, %eax
	movl	%esi, 28(%ebx)
	sall	$4, %eax
	movl	%ebx, 20(%esp)
	movl	%eax, 44(%esp)
	movl	%ecx, 40(%esp)
	movl	%ecx, %ebp
	movl	%eax, %esi
	jmp	L1833
	.p2align 4,,10
L1832:
	addl	$16, %esi
	addl	$1, %ebp
	cmpl	%edi, 24(%esp)
	jle	L1855
L1833:
	movl	20(%esp), %eax
	movl	%ebp, %edi
	movl	12(%eax), %ebx
	addl	%esi, %ebx
	movl	8(%ebx), %edx
	testl	%edx, %edx
	je	L1832
	movl	%eax, %edx
	movl	28(%esp), %eax
	movl	%ebp, %ecx
	movl	%ebp, %edi
	addl	$16, %esi
	addl	$1, %ebp
	call	_luaH_setnum
	movl	(%ebx), %edx
	movl	4(%ebx), %ecx
	cmpl	%edi, 24(%esp)
	movl	%edx, (%eax)
	movl	%ecx, 4(%eax)
	movl	8(%ebx), %edx
	movl	%edx, 8(%eax)
	jg	L1833
L1855:
	cmpl	$268435455, 40(%esp)
	movl	20(%esp), %ebx
	jbe	L1856
	movl	28(%esp), %eax
	movl	$LC44, 4(%esp)
	movl	%eax, (%esp)
	call	_luaG_runerror
	xorl	%eax, %eax
L1835:
	movl	%eax, 12(%ebx)
L1830:
	movzbl	36(%esp), %ecx
	movl	$1, %edi
	sall	%cl, %edi
	movl	32(%esp), %ecx
	movl	%edi, %eax
	sall	$5, %eax
	subl	$1, %edi
	leal	-16(%ecx,%eax), %esi
	jns	L1844
	jmp	L1845
	.p2align 4,,10
L1839:
	subl	$1, %edi
	subl	$32, %esi
	cmpl	$-1, %edi
	je	L1845
L1844:
	movl	-8(%esi), %eax
	testl	%eax, %eax
	je	L1839
	movl	%esi, %edx
	movl	%ebx, %eax
	call	_luaH_get
	cmpl	$_luaO_nilobject_, %eax
	movb	$0, 6(%ebx)
	je	L1857
L1840:
	movl	-16(%esi), %edx
	movl	-12(%esi), %ecx
	subl	$1, %edi
	subl	$32, %esi
	movl	%edx, (%eax)
	movl	%ecx, 4(%eax)
	movl	24(%esi), %edx
	cmpl	$-1, %edi
	movl	%edx, 8(%eax)
	jne	L1844
L1845:
	cmpl	$_dummynode_, 32(%esp)
	je	L1858
	movzbl	36(%esp), %ecx
	movl	$32, %eax
	movl	32(%esp), %edx
	sall	%cl, %eax
	movl	%eax, %ecx
	movl	28(%esp), %eax
	addl	$60, %esp
	.cfi_remember_state
	.cfi_def_cfa_offset 20
	popl	%ebx
	.cfi_restore 3
	.cfi_def_cfa_offset 16
	popl	%esi
	.cfi_restore 6
	.cfi_def_cfa_offset 12
	popl	%edi
	.cfi_restore 7
	.cfi_def_cfa_offset 8
	popl	%ebp
	.cfi_restore 5
	.cfi_def_cfa_offset 4
	jmp	_luaM_realloc_.constprop.162
	.p2align 4,,10
L1857:
	.cfi_restore_state
	movl	8(%esi), %eax
	testl	%eax, %eax
	je	L1859
	cmpl	$3, %eax
	je	L1860
L1842:
	movl	28(%esp), %eax
	movl	%esi, %ecx
	movl	%ebx, %edx
	call	_newkey
	jmp	L1840
	.p2align 4,,10
L1856:
	movl	44(%esp), %eax
	movl	24(%esp), %ecx
	movl	12(%ebx), %edx
	movl	%eax, (%esp)
	movl	28(%esp), %eax
	sall	$4, %ecx
	call	_luaM_realloc_
	jmp	L1835
	.p2align 4,,10
L1854:
	movl	%esi, (%esp)
	movl	28(%esp), %esi
	leal	28(%edx), %ecx
	leal	12(%edx), %edx
	movl	%esi, %eax
	call	_setarrayvector.isra.53
	movl	%edi, %ecx
	movl	%ebx, %edx
	movl	%esi, %eax
	call	_setnodevector
	jmp	L1830
	.p2align 4,,10
L1858:
	addl	$60, %esp
	.cfi_remember_state
	.cfi_def_cfa_offset 20
	popl	%ebx
	.cfi_restore 3
	.cfi_def_cfa_offset 16
	popl	%esi
	.cfi_restore 6
	.cfi_def_cfa_offset 12
	popl	%edi
	.cfi_restore 7
	.cfi_def_cfa_offset 8
	popl	%ebp
	.cfi_restore 5
	.cfi_def_cfa_offset 4
	ret
	.p2align 4,,10
L1859:
	.cfi_restore_state
	movl	28(%esp), %eax
	movl	$LC132, 4(%esp)
	movl	%eax, (%esp)
	call	_luaG_runerror
	jmp	L1842
	.p2align 4,,10
L1860:
	fldl	(%esi)
	fucomip	%st(0), %st
	jnp	L1842
	movl	28(%esp), %eax
	movl	$LC133, 4(%esp)
	movl	%eax, (%esp)
	call	_luaG_runerror
	jmp	L1842
	.cfi_endproc
LFE120:
	.section	.text.unlikely,"x"
LCOLDE134:
	.text
LHOTE134:
	.section	.text.unlikely,"x"
LCOLDB135:
	.text
LHOTB135:
	.p2align 4,,15
	.def	_newkey;	.scl	3;	.type	32;	.endef
_newkey:
LFB126:
	.cfi_startproc
	pushl	%ebp
	.cfi_def_cfa_offset 8
	.cfi_offset 5, -8
	pushl	%edi
	.cfi_def_cfa_offset 12
	.cfi_offset 7, -12
	pushl	%esi
	.cfi_def_cfa_offset 16
	.cfi_offset 6, -16
	pushl	%ebx
	.cfi_def_cfa_offset 20
	.cfi_offset 3, -20
	subl	$204, %esp
	.cfi_def_cfa_offset 224
	movl	%eax, 44(%esp)
	movl	%edx, 28(%esp)
	movl	%edx, %eax
	movl	%ecx, %edx
	movl	%ecx, 32(%esp)
	call	_mainposition
	movl	8(%eax), %ecx
	movl	%eax, %ebp
	testl	%ecx, %ecx
	jne	L1903
	cmpl	$_dummynode_, %eax
	je	L1903
L1862:
	movl	32(%esp), %ecx
	movl	(%ecx), %eax
	movl	4(%ecx), %edx
	movl	%eax, 16(%ebp)
	movl	%edx, 20(%ebp)
	movl	8(%ecx), %eax
	movl	%eax, 24(%ebp)
	cmpl	$3, 8(%ecx)
	jle	L1890
	movl	(%ecx), %eax
	testb	$3, 5(%eax)
	je	L1890
	movl	28(%esp), %ecx
	movzbl	5(%ecx), %eax
	testb	$4, %al
	je	L1890
	movl	44(%esp), %edi
	andl	$-5, %eax
	movl	16(%edi), %edx
	movb	%al, 5(%ecx)
	movl	40(%edx), %eax
	movl	%eax, 24(%ecx)
	movl	%ecx, 40(%edx)
L1890:
	addl	$204, %esp
	.cfi_remember_state
	.cfi_def_cfa_offset 20
	movl	%ebp, %eax
	popl	%ebx
	.cfi_restore 3
	.cfi_def_cfa_offset 16
	popl	%esi
	.cfi_restore 6
	.cfi_def_cfa_offset 12
	popl	%edi
	.cfi_restore 7
	.cfi_def_cfa_offset 8
	popl	%ebp
	.cfi_restore 5
	.cfi_def_cfa_offset 4
	ret
	.p2align 4,,10
L1903:
	.cfi_restore_state
	movl	28(%esp), %eax
	movl	16(%eax), %ebx
	movl	20(%eax), %esi
	jmp	L1864
	.p2align 4,,10
L1866:
	movl	24(%edi), %edx
	testl	%edx, %edx
	je	L1865
	movl	%edi, %esi
L1864:
	cmpl	%esi, %ebx
	leal	-32(%esi), %edi
	jb	L1866
	movl	28(%esp), %esi
	xorl	%eax, %eax
	movl	$31, %ecx
	movl	$0, 36(%esp)
	movl	$1, %edx
	movl	%ebx, 48(%esp)
	movl	%edi, 20(%esi)
	leal	68(%esp), %edi
	rep stosl
	movl	28(%esi), %eax
	movl	$1, %edi
	movl	%eax, 40(%esp)
	leal	68(%esp), %eax
	movl	%eax, 52(%esp)
	movl	%eax, %ebp
L1867:
	movl	40(%esp), %eax
	cmpl	%eax, %edi
	jle	L1870
	cmpl	%eax, %edx
	jg	L1871
	movl	%eax, %esi
L1872:
	movl	28(%esp), %ecx
	movl	%edx, %eax
	sall	$4, %eax
	addl	12(%ecx), %eax
	xorl	%ecx, %ecx
	.p2align 4,,10
L1874:
	cmpl	$1, -8(%eax)
	sbbl	%ebx, %ebx
	addl	$1, %edx
	addl	$16, %eax
	cmpl	%edx, %esi
	leal	1(%ecx,%ebx), %ecx
	jge	L1874
L1873:
	leal	192(%esp), %eax
	addl	%ecx, 0(%ebp)
	addl	$4, %ebp
	addl	%ecx, 36(%esp)
	addl	%edi, %edi
	cmpl	%eax, %ebp
	jne	L1867
L1871:
	movl	28(%esp), %eax
	movl	$1, %edx
	movl	48(%esp), %ebx
	xorl	%esi, %esi
	xorl	%edi, %edi
	movzbl	7(%eax), %ecx
	sall	%cl, %edx
	movl	%edx, %eax
	sall	$5, %eax
	addl	%eax, %ebx
	jmp	L1875
	.p2align 4,,10
L1876:
	subl	$32, %ebx
L1875:
	subl	$1, %edx
	cmpl	$-1, %edx
	je	L1926
	movl	-24(%ebx), %eax
	testl	%eax, %eax
	je	L1876
	xorl	%ecx, %ecx
	cmpl	$3, -8(%ebx)
	je	L1927
L1877:
	addl	%ecx, %esi
	addl	$1, %edi
	jmp	L1876
	.p2align 4,,10
L1865:
	movl	28(%esp), %eax
	leal	16(%ebp), %edx
	movl	%edi, 20(%eax)
	call	_mainposition
	cmpl	%eax, %ebp
	jne	L1917
	movl	28(%ebp), %eax
	movl	%eax, -4(%esi)
	movl	%edi, 28(%ebp)
	movl	%edi, %ebp
	jmp	L1862
	.p2align 4,,10
L1902:
	movl	%edx, %eax
L1917:
	movl	28(%eax), %edx
	cmpl	%edx, %ebp
	jne	L1902
	movl	%edi, 28(%eax)
	movl	0(%ebp), %eax
	movl	%eax, -32(%esi)
	movl	4(%ebp), %eax
	movl	%eax, -28(%esi)
	movl	8(%ebp), %eax
	movl	%eax, -24(%esi)
	movl	12(%ebp), %eax
	movl	%eax, -20(%esi)
	movl	16(%ebp), %eax
	movl	%eax, -16(%esi)
	movl	20(%ebp), %eax
	movl	%eax, -12(%esi)
	movl	24(%ebp), %eax
	movl	%eax, -8(%esi)
	movl	28(%ebp), %eax
	movl	%eax, -4(%esi)
	movl	$0, 28(%ebp)
	movl	$0, 8(%ebp)
	jmp	L1862
	.p2align 4,,10
L1870:
	cmpl	%edi, %edx
	jg	L1891
	movl	%edi, %esi
	jmp	L1872
L1891:
	xorl	%ecx, %ecx
	jmp	L1873
L1926:
	movl	36(%esp), %eax
	xorl	%ebp, %ebp
	addl	%eax, %esi
	addl	%eax, %edi
	movl	32(%esp), %eax
	cmpl	$3, 8(%eax)
	je	L1928
L1882:
	leal	1(%edi), %eax
	xorl	%ecx, %ecx
	xorl	%edi, %edi
	addl	%esi, %ebp
	movl	%eax, 40(%esp)
	je	L1886
	movl	$1, %edx
	xorl	%ebx, %ebx
	xorl	%eax, %eax
	movl	%ebp, 36(%esp)
	movl	52(%esp), %esi
	jmp	L1888
	.p2align 4,,10
L1929:
	addl	%edx, %edx
	addl	$4, %esi
	movl	%edx, %ebx
	sarl	%ebx
	cmpl	%ebx, %ebp
	jle	L1886
L1888:
	movl	(%esi), %ebp
	testl	%ebp, %ebp
	jle	L1887
	addl	%ebp, %eax
	cmpl	%eax, %ebx
	cmovl	%edx, %ecx
	cmovl	%eax, %edi
L1887:
	movl	36(%esp), %ebp
	cmpl	%eax, %ebp
	jne	L1929
L1886:
	movl	40(%esp), %eax
	movl	28(%esp), %ebx
	subl	%edi, %eax
	movl	44(%esp), %edi
	movl	%ebx, %edx
	movl	%eax, (%esp)
	movl	%edi, %eax
	call	_resize
	movl	32(%esp), %ecx
	addl	$204, %esp
	.cfi_remember_state
	.cfi_def_cfa_offset 20
	movl	%ebx, %edx
	movl	%edi, %eax
	popl	%ebx
	.cfi_restore 3
	.cfi_def_cfa_offset 16
	popl	%esi
	.cfi_restore 6
	.cfi_def_cfa_offset 12
	popl	%edi
	.cfi_restore 7
	.cfi_def_cfa_offset 8
	popl	%ebp
	.cfi_restore 5
	.cfi_def_cfa_offset 4
	jmp	_luaH_set
L1928:
	.cfi_restore_state
	fldl	(%eax)
	fnstcw	62(%esp)
	movzwl	62(%esp), %eax
	movb	$12, %ah
	movw	%ax, 60(%esp)
	fldcw	60(%esp)
	fistl	36(%esp)
	fldcw	62(%esp)
	fildl	36(%esp)
	fxch	%st(1)
	fucomip	%st(1), %st
	fstp	%st(0)
	jp	L1897
	jne	L1897
	movl	36(%esp), %eax
	subl	$1, %eax
	cmpl	$1073741823, %eax
	ja	L1882
	cmpl	$255, %eax
	jle	L1899
	.p2align 4,,10
L1885:
	shrl	$8, %eax
	addl	$8, %edx
	cmpl	$255, %eax
	ja	L1885
L1884:
	movzbl	_log_2.5931(%eax), %eax
	movl	$1, %ebp
	leal	1(%edx,%eax), %eax
	addl	$1, 68(%esp,%eax,4)
	jmp	L1882
L1927:
	fldl	-16(%ebx)
	fnstcw	62(%esp)
	movzwl	62(%esp), %eax
	movb	$12, %ah
	movw	%ax, 60(%esp)
	fldcw	60(%esp)
	fistl	40(%esp)
	fldcw	62(%esp)
	fildl	40(%esp)
	fxch	%st(1)
	fucomip	%st(1), %st
	fstp	%st(0)
	jp	L1893
	jne	L1893
	movl	40(%esp), %eax
	subl	$1, %eax
	cmpl	$1073741823, %eax
	ja	L1877
	cmpl	$255, %eax
	movl	$-1, %ecx
	jle	L1879
	.p2align 4,,10
L1880:
	shrl	$8, %eax
	addl	$8, %ecx
	cmpl	$255, %eax
	ja	L1880
L1879:
	movzbl	_log_2.5931(%eax), %eax
	leal	1(%ecx,%eax), %eax
	movl	$1, %ecx
	addl	$1, 68(%esp,%eax,4)
	jmp	L1877
L1893:
	xorl	%ecx, %ecx
	jmp	L1877
L1897:
	xorl	%ebp, %ebp
	jmp	L1882
L1899:
	movl	$-1, %edx
	jmp	L1884
	.cfi_endproc
LFE126:
	.section	.text.unlikely,"x"
LCOLDE135:
	.text
LHOTE135:
	.section	.text.unlikely,"x"
LCOLDB136:
	.text
LHOTB136:
	.p2align 4,,15
	.def	_luaH_set;	.scl	3;	.type	32;	.endef
_luaH_set:
LFB130:
	.cfi_startproc
	pushl	%edi
	.cfi_def_cfa_offset 8
	.cfi_offset 7, -8
	pushl	%esi
	.cfi_def_cfa_offset 12
	.cfi_offset 6, -12
	movl	%eax, %edi
	pushl	%ebx
	.cfi_def_cfa_offset 16
	.cfi_offset 3, -16
	movl	%edx, %ebx
	movl	%ecx, %edx
	movl	%ebx, %eax
	movl	%ecx, %esi
	subl	$16, %esp
	.cfi_def_cfa_offset 32
	call	_luaH_get
	cmpl	$_luaO_nilobject_, %eax
	movb	$0, 6(%ebx)
	je	L1937
	addl	$16, %esp
	.cfi_remember_state
	.cfi_def_cfa_offset 16
	popl	%ebx
	.cfi_restore 3
	.cfi_def_cfa_offset 12
	popl	%esi
	.cfi_restore 6
	.cfi_def_cfa_offset 8
	popl	%edi
	.cfi_restore 7
	.cfi_def_cfa_offset 4
	ret
	.p2align 4,,10
L1937:
	.cfi_restore_state
	movl	8(%esi), %eax
	testl	%eax, %eax
	je	L1938
	cmpl	$3, %eax
	je	L1939
L1933:
	addl	$16, %esp
	.cfi_remember_state
	.cfi_def_cfa_offset 16
	movl	%esi, %ecx
	movl	%ebx, %edx
	movl	%edi, %eax
	popl	%ebx
	.cfi_restore 3
	.cfi_def_cfa_offset 12
	popl	%esi
	.cfi_restore 6
	.cfi_def_cfa_offset 8
	popl	%edi
	.cfi_restore 7
	.cfi_def_cfa_offset 4
	jmp	_newkey
	.p2align 4,,10
L1938:
	.cfi_restore_state
	movl	$LC132, 4(%esp)
	movl	%edi, (%esp)
	call	_luaG_runerror
	jmp	L1933
	.p2align 4,,10
L1939:
	fldl	(%esi)
	fucomip	%st(0), %st
	jnp	L1933
	movl	$LC133, 4(%esp)
	movl	%edi, (%esp)
	call	_luaG_runerror
	jmp	L1933
	.cfi_endproc
LFE130:
	.section	.text.unlikely,"x"
LCOLDE136:
	.text
LHOTE136:
	.section	.text.unlikely,"x"
LCOLDB137:
	.text
LHOTB137:
	.p2align 4,,15
	.def	_luaH_setnum;	.scl	3;	.type	32;	.endef
_luaH_setnum:
LFB131:
	.cfi_startproc
	pushl	%esi
	.cfi_def_cfa_offset 8
	.cfi_offset 6, -8
	pushl	%ebx
	.cfi_def_cfa_offset 12
	.cfi_offset 3, -12
	movl	%eax, %esi
	leal	-1(%ecx), %eax
	movl	%edx, %ebx
	subl	$36, %esp
	.cfi_def_cfa_offset 48
	cmpl	28(%edx), %eax
	jnb	L1941
	leal	268435455(%ecx), %eax
	sall	$4, %eax
	addl	12(%edx), %eax
	cmpl	$_luaO_nilobject_, %eax
	je	L1946
L1943:
	addl	$36, %esp
	.cfi_remember_state
	.cfi_def_cfa_offset 12
	popl	%ebx
	.cfi_restore 3
	.cfi_def_cfa_offset 8
	popl	%esi
	.cfi_restore 6
	.cfi_def_cfa_offset 4
	ret
	.p2align 4,,10
L1941:
	.cfi_restore_state
	movl	%ecx, %edx
	movl	%ebx, %eax
	movl	%ecx, 12(%esp)
	call	_luaH_getnum.part.8
	cmpl	$_luaO_nilobject_, %eax
	movl	12(%esp), %ecx
	jne	L1943
L1946:
	movl	%ecx, 12(%esp)
	leal	16(%esp), %ecx
	movl	%ebx, %edx
	fildl	12(%esp)
	movl	%esi, %eax
	movl	$3, 24(%esp)
	fstpl	16(%esp)
	call	_newkey
	addl	$36, %esp
	.cfi_def_cfa_offset 12
	popl	%ebx
	.cfi_restore 3
	.cfi_def_cfa_offset 8
	popl	%esi
	.cfi_restore 6
	.cfi_def_cfa_offset 4
	ret
	.cfi_endproc
LFE131:
	.section	.text.unlikely,"x"
LCOLDE137:
	.text
LHOTE137:
	.section	.text.unlikely,"x"
LCOLDB138:
	.text
LHOTB138:
	.p2align 4,,15
	.def	_lua_rawseti;	.scl	3;	.type	32;	.endef
_lua_rawseti:
LFB396:
	.cfi_startproc
	pushl	%ebp
	.cfi_def_cfa_offset 8
	.cfi_offset 5, -8
	pushl	%edi
	.cfi_def_cfa_offset 12
	.cfi_offset 7, -12
	movl	%ecx, %ebp
	pushl	%esi
	.cfi_def_cfa_offset 16
	.cfi_offset 6, -16
	pushl	%ebx
	.cfi_def_cfa_offset 20
	.cfi_offset 3, -20
	movl	%eax, %ebx
	subl	$12, %esp
	.cfi_def_cfa_offset 32
	call	_index2adr
	movl	8(%ebx), %esi
	movl	(%eax), %edx
	movl	%ebp, %ecx
	movl	%eax, %edi
	movl	%ebx, %eax
	call	_luaH_setnum
	movl	-16(%esi), %edx
	movl	-12(%esi), %ecx
	movl	%edx, (%eax)
	movl	%ecx, 4(%eax)
	movl	-8(%esi), %edx
	movl	%edx, 8(%eax)
	movl	8(%ebx), %eax
	cmpl	$3, -8(%eax)
	jle	L1948
	movl	-16(%eax), %eax
	testb	$3, 5(%eax)
	je	L1948
	movl	(%edi), %eax
	movzbl	5(%eax), %edx
	testb	$4, %dl
	je	L1948
	movl	16(%ebx), %ecx
	andl	$-5, %edx
	movb	%dl, 5(%eax)
	movl	40(%ecx), %edx
	movl	%edx, 24(%eax)
	movl	%eax, 40(%ecx)
L1948:
	subl	$16, 8(%ebx)
	addl	$12, %esp
	.cfi_def_cfa_offset 20
	popl	%ebx
	.cfi_restore 3
	.cfi_def_cfa_offset 16
	popl	%esi
	.cfi_restore 6
	.cfi_def_cfa_offset 12
	popl	%edi
	.cfi_restore 7
	.cfi_def_cfa_offset 8
	popl	%ebp
	.cfi_restore 5
	.cfi_def_cfa_offset 4
	ret
	.cfi_endproc
LFE396:
	.section	.text.unlikely,"x"
LCOLDE138:
	.text
LHOTE138:
	.section	.text.unlikely,"x"
LCOLDB139:
	.text
LHOTB139:
	.p2align 4,,15
	.def	_lua_rawseti.constprop.129;	.scl	3;	.type	32;	.endef
_lua_rawseti.constprop.129:
LFB710:
	.cfi_startproc
	pushl	%edi
	.cfi_def_cfa_offset 8
	.cfi_offset 7, -8
	pushl	%esi
	.cfi_def_cfa_offset 12
	.cfi_offset 6, -12
	pushl	%ebx
	.cfi_def_cfa_offset 16
	.cfi_offset 3, -16
	movl	12(%eax), %edi
	movl	%eax, %ebx
	movl	8(%eax), %esi
	cmpl	%esi, %edi
	jnb	L1959
	movl	(%edi), %eax
L1957:
	movl	%edx, %ecx
	movl	%eax, %edx
	movl	%ebx, %eax
	call	_luaH_setnum
	movl	-16(%esi), %edx
	movl	-12(%esi), %ecx
	movl	%edx, (%eax)
	movl	%ecx, 4(%eax)
	movl	-8(%esi), %edx
	movl	%edx, 8(%eax)
	movl	8(%ebx), %eax
	cmpl	$3, -8(%eax)
	jle	L1958
	movl	-16(%eax), %eax
	testb	$3, 5(%eax)
	je	L1958
	movl	(%edi), %eax
	movzbl	5(%eax), %edx
	testb	$4, %dl
	je	L1958
	movl	16(%ebx), %ecx
	andl	$-5, %edx
	movb	%dl, 5(%eax)
	movl	40(%ecx), %edx
	movl	%edx, 24(%eax)
	movl	%eax, 40(%ecx)
L1958:
	subl	$16, 8(%ebx)
	popl	%ebx
	.cfi_remember_state
	.cfi_restore 3
	.cfi_def_cfa_offset 12
	popl	%esi
	.cfi_restore 6
	.cfi_def_cfa_offset 8
	popl	%edi
	.cfi_restore 7
	.cfi_def_cfa_offset 4
	ret
	.p2align 4,,10
L1959:
	.cfi_restore_state
	xorl	%eax, %eax
	movl	$_luaO_nilobject_, %edi
	jmp	L1957
	.cfi_endproc
LFE710:
	.section	.text.unlikely,"x"
LCOLDE139:
	.text
LHOTE139:
	.section	.text.unlikely,"x"
LCOLDB140:
	.text
LHOTB140:
	.p2align 4,,15
	.def	_luaH_new.constprop.166;	.scl	3;	.type	32;	.endef
_luaH_new.constprop.166:
LFB673:
	.cfi_startproc
	pushl	%esi
	.cfi_def_cfa_offset 8
	.cfi_offset 6, -8
	pushl	%ebx
	.cfi_def_cfa_offset 12
	.cfi_offset 3, -12
	movl	%eax, %esi
	xorl	%ecx, %ecx
	xorl	%edx, %edx
	subl	$20, %esp
	.cfi_def_cfa_offset 32
	movl	$32, (%esp)
	call	_luaM_realloc_
	movl	%eax, %ebx
	movl	16(%esi), %eax
	xorl	%ecx, %ecx
	movl	28(%eax), %edx
	movl	%edx, (%ebx)
	movl	%ebx, 28(%eax)
	xorl	%edx, %edx
	movzbl	20(%eax), %eax
	movb	$5, 4(%ebx)
	movl	$0, 8(%ebx)
	movb	$-1, 6(%ebx)
	movl	$0, 12(%ebx)
	movl	$0, 28(%ebx)
	movb	$0, 7(%ebx)
	movl	$_dummynode_, 16(%ebx)
	andl	$3, %eax
	movb	%al, 5(%ebx)
	movl	$0, (%esp)
	movl	%esi, %eax
	call	_luaM_realloc_
	movl	28(%ebx), %ecx
	movl	%eax, 12(%ebx)
	movl	%ecx, %edx
	sall	$4, %edx
	addl	%eax, %edx
	testl	%ecx, %ecx
	jns	L1970
	.p2align 4,,10
L1971:
	movl	$0, 8(%edx)
	addl	$16, %edx
	cmpl	%edx, %eax
	jne	L1971
L1970:
	movl	$0, 28(%ebx)
	movl	$_dummynode_, 16(%ebx)
	movl	%ebx, %eax
	movb	$0, 7(%ebx)
	movl	$_dummynode_, 20(%ebx)
	addl	$20, %esp
	.cfi_def_cfa_offset 12
	popl	%ebx
	.cfi_restore 3
	.cfi_def_cfa_offset 8
	popl	%esi
	.cfi_restore 6
	.cfi_def_cfa_offset 4
	ret
	.cfi_endproc
LFE673:
	.section	.text.unlikely,"x"
LCOLDE140:
	.text
LHOTE140:
	.section .rdata,"dr"
LC141:
	.ascii "main\0"
LC142:
	.ascii "Lua\0"
LC143:
	.ascii "=[C]\0"
LC144:
	.ascii "tail\0"
LC145:
	.ascii "=(tail call)\0"
LC146:
	.ascii "C\0"
	.section	.text.unlikely,"x"
LCOLDB147:
	.text
LHOTB147:
	.p2align 4,,15
	.def	_lua_getinfo;	.scl	3;	.type	32;	.endef
_lua_getinfo:
LFB181:
	.cfi_startproc
	pushl	%ebp
	.cfi_def_cfa_offset 8
	.cfi_offset 5, -8
	pushl	%edi
	.cfi_def_cfa_offset 12
	.cfi_offset 7, -12
	movl	%eax, %ebp
	pushl	%esi
	.cfi_def_cfa_offset 16
	.cfi_offset 6, -16
	pushl	%ebx
	.cfi_def_cfa_offset 20
	.cfi_offset 3, -20
	movl	%ecx, %edi
	subl	$44, %esp
	.cfi_def_cfa_offset 64
	cmpb	$62, (%edx)
	movl	%edx, 16(%esp)
	je	L2038
	movl	96(%ecx), %eax
	testl	%eax, %eax
	je	L1978
	leal	(%eax,%eax,2), %edx
	movl	40(%ebp), %eax
	leal	(%eax,%edx,8), %eax
	movl	%eax, %edx
	movl	4(%eax), %eax
	movl	(%eax), %ebx
L1977:
	testl	%ebx, %ebx
	je	L1978
	movl	16(%esp), %esi
	leal	36(%edi), %ecx
	movl	$1, 20(%esp)
	movl	%ecx, 24(%esp)
	movzbl	(%esi), %eax
	testb	%al, %al
	je	L2039
	movl	%ebp, 28(%esp)
	movl	%edx, %ebp
	.p2align 4,,10
L2025:
	subl	$76, %eax
	cmpb	$41, %al
	ja	L2011
	movzbl	%al, %eax
	jmp	*L1985(,%eax,4)
	.section .rdata,"dr"
	.align 4
L1985:
	.long	L1983
	.long	L2011
	.long	L2011
	.long	L2011
	.long	L2011
	.long	L2011
	.long	L2011
	.long	L1986
	.long	L2011
	.long	L2011
	.long	L2011
	.long	L2011
	.long	L2011
	.long	L2011
	.long	L2011
	.long	L2011
	.long	L2011
	.long	L2011
	.long	L2011
	.long	L2011
	.long	L2011
	.long	L2011
	.long	L2011
	.long	L2011
	.long	L2011
	.long	L2011
	.long	L1983
	.long	L2011
	.long	L2011
	.long	L2011
	.long	L2011
	.long	L2011
	.long	L1987
	.long	L2011
	.long	L1988
	.long	L2011
	.long	L2011
	.long	L2011
	.long	L2011
	.long	L2011
	.long	L2011
	.long	L1989
	.text
	.p2align 4,,10
L1987:
	testl	%ebp, %ebp
	je	L1995
	movl	4(%ebp), %eax
	cmpl	$6, 8(%eax)
	je	L2040
L1995:
	movl	$-1, %eax
L1994:
	movl	%eax, 20(%edi)
L1983:
	addl	$1, %esi
	movzbl	(%esi), %eax
	testb	%al, %al
	jne	L2025
L2043:
	movl	28(%esp), %ebp
	movl	16(%esp), %eax
L1980:
	movl	$102, 4(%esp)
	movl	%eax, (%esp)
	call	_strchr
	testl	%eax, %eax
	je	L2041
	movl	8(%ebp), %eax
	movl	%ebx, (%eax)
	movl	$6, 8(%eax)
	movl	8(%ebp), %eax
L1999:
	movl	28(%ebp), %edx
	subl	%eax, %edx
	cmpl	$16, %edx
	jle	L2042
L2000:
	addl	$16, %eax
	movl	%eax, 8(%ebp)
	movl	16(%esp), %eax
	movl	$76, 4(%esp)
	movl	%eax, (%esp)
	call	_strchr
	testl	%eax, %eax
	je	L2019
	testl	%ebx, %ebx
	je	L2002
	cmpb	$0, 6(%ebx)
	je	L2003
L2002:
	movl	8(%ebp), %eax
	movl	$0, 8(%eax)
L2004:
	movl	28(%ebp), %edx
	subl	%eax, %edx
	cmpl	$16, %edx
	jg	L2008
	movl	%ebp, %eax
	movl	$1, %edx
	call	_luaD_growstack
	movl	8(%ebp), %eax
L2008:
	addl	$16, %eax
	movl	%eax, 8(%ebp)
L2019:
	movl	20(%esp), %eax
	addl	$44, %esp
	.cfi_remember_state
	.cfi_def_cfa_offset 20
	popl	%ebx
	.cfi_restore 3
	.cfi_def_cfa_offset 16
	popl	%esi
	.cfi_restore 6
	.cfi_def_cfa_offset 12
	popl	%edi
	.cfi_restore 7
	.cfi_def_cfa_offset 8
	popl	%ebp
	.cfi_restore 5
	.cfi_def_cfa_offset 4
	ret
	.p2align 4,,10
L1989:
	.cfi_restore_state
	movzbl	7(%ebx), %eax
	addl	$1, %esi
	movl	%eax, 24(%edi)
	movzbl	(%esi), %eax
	testb	%al, %al
	jne	L2025
	jmp	L2043
	.p2align 4,,10
L1986:
	cmpb	$0, 6(%ebx)
	jne	L2044
	movl	16(%ebx), %eax
	movl	32(%eax), %edx
	addl	$16, %edx
	movl	%edx, 16(%edi)
	movl	16(%ebx), %ecx
	movl	60(%ecx), %eax
	movl	64(%ecx), %ecx
	testl	%eax, %eax
	movl	%eax, 28(%edi)
	movl	%ecx, 32(%edi)
	movl	$LC141, %eax
	movl	$LC142, %ecx
	cmovne	%ecx, %eax
	movl	%eax, 12(%edi)
L1991:
	movl	24(%esp), %eax
	addl	$1, %esi
	movl	$60, %ecx
	call	_luaO_chunkid
	movzbl	(%esi), %eax
	testb	%al, %al
	jne	L2025
	jmp	L2043
	.p2align 4,,10
L1988:
	addl	$1, %esi
	movl	$LC75, 8(%edi)
	movl	$0, 4(%edi)
	movzbl	(%esi), %eax
	testb	%al, %al
	jne	L2025
	jmp	L2043
	.p2align 4,,10
L2011:
	addl	$1, %esi
	movzbl	(%esi), %eax
	movl	$0, 20(%esp)
	testb	%al, %al
	jne	L2025
	jmp	L2043
	.p2align 4,,10
L2044:
	movl	$LC143, 16(%edi)
	movl	$-1, 28(%edi)
	movl	$LC143, %edx
	movl	$-1, 32(%edi)
	movl	$LC146, 12(%edi)
	jmp	L1991
	.p2align 4,,10
L2040:
	movl	(%eax), %eax
	cmpb	$0, 6(%eax)
	jne	L1995
	movl	28(%esp), %ecx
	cmpl	20(%ecx), %ebp
	je	L1996
	movl	12(%ebp), %edx
L1997:
	movl	16(%eax), %eax
	subl	12(%eax), %edx
	sarl	$2, %edx
	subl	$1, %edx
	js	L1995
	movl	20(%eax), %eax
	testl	%eax, %eax
	je	L2013
	movl	(%eax,%edx,4), %eax
	jmp	L1994
	.p2align 4,,10
L2038:
	movl	8(%eax), %eax
	addl	$1, 16(%esp)
	xorl	%edx, %edx
	movl	-16(%eax), %ebx
	subl	$16, %eax
	movl	%eax, 8(%ebp)
	jmp	L1977
	.p2align 4,,10
L2042:
	movl	%ebp, %eax
	movl	$1, %edx
	call	_luaD_growstack
	movl	8(%ebp), %eax
	jmp	L2000
	.p2align 4,,10
L2041:
	movl	16(%esp), %eax
	movl	$76, 4(%esp)
	movl	%eax, (%esp)
	call	_strchr
	testl	%eax, %eax
	je	L2019
	cmpb	$0, 6(%ebx)
	jne	L2002
L2003:
	movl	%ebp, %eax
	xorl	%esi, %esi
	call	_luaH_new.constprop.166
	movl	%eax, 16(%esp)
	movl	16(%ebx), %eax
	movl	20(%eax), %edi
	movl	48(%eax), %eax
	testl	%eax, %eax
	jle	L2007
	.p2align 4,,10
L2024:
	movl	(%edi,%esi,4), %ecx
	movl	16(%esp), %edx
	movl	%ebp, %eax
	addl	$1, %esi
	call	_luaH_setnum
	movl	$1, (%eax)
	movl	$1, 8(%eax)
	movl	16(%ebx), %eax
	cmpl	48(%eax), %esi
	jl	L2024
L2007:
	movl	8(%ebp), %eax
	movl	16(%esp), %ebx
	movl	$5, 8(%eax)
	movl	%ebx, (%eax)
	movl	8(%ebp), %eax
	jmp	L2004
	.p2align 4,,10
L2013:
	xorl	%eax, %eax
	jmp	L1994
L2039:
	movl	%esi, %eax
	jmp	L1980
	.p2align 4,,10
L1978:
	leal	36(%edi), %eax
	movl	$60, %ecx
	movl	$LC145, %edx
	movl	$LC75, 8(%edi)
	movl	$LC75, 4(%edi)
	movl	$LC144, 12(%edi)
	movl	$-1, 20(%edi)
	movl	$-1, 28(%edi)
	movl	$-1, 32(%edi)
	movl	$LC145, 16(%edi)
	call	_luaO_chunkid
	movl	16(%esp), %eax
	movl	$0, 24(%edi)
	movl	$102, 4(%esp)
	movl	%eax, (%esp)
	call	_strchr
	testl	%eax, %eax
	je	L2045
	movl	8(%ebp), %eax
	xorl	%ebx, %ebx
	movl	$1, 20(%esp)
	movl	$0, 8(%eax)
	jmp	L1999
L1996:
	movl	24(%ecx), %edx
	movl	%edx, 12(%ebp)
	jmp	L1997
L2045:
	movl	16(%esp), %eax
	movl	$76, 4(%esp)
	movl	%eax, (%esp)
	call	_strchr
	testl	%eax, %eax
	movl	$1, 20(%esp)
	jne	L2002
	jmp	L2019
	.cfi_endproc
LFE181:
	.section	.text.unlikely,"x"
LCOLDE147:
	.text
LHOTE147:
	.section	.text.unlikely,"x"
LCOLDB148:
	.text
LHOTB148:
	.p2align 4,,15
	.def	_open_func;	.scl	3;	.type	32;	.endef
_open_func:
LFB292:
	.cfi_startproc
	pushl	%ebp
	.cfi_def_cfa_offset 8
	.cfi_offset 5, -8
	pushl	%edi
	.cfi_def_cfa_offset 12
	.cfi_offset 7, -12
	movl	%eax, %ebp
	pushl	%esi
	.cfi_def_cfa_offset 16
	.cfi_offset 6, -16
	pushl	%ebx
	.cfi_def_cfa_offset 20
	.cfi_offset 3, -20
	movl	%edx, %esi
	xorl	%ecx, %ecx
	xorl	%edx, %edx
	subl	$28, %esp
	.cfi_def_cfa_offset 48
	movl	52(%eax), %edi
	movl	$76, (%esp)
	movl	%edi, %eax
	call	_luaM_realloc_
	movl	%eax, %ebx
	movl	16(%edi), %eax
	movl	28(%eax), %edx
	movl	%edx, (%ebx)
	movl	%ebx, 28(%eax)
	movzbl	20(%eax), %eax
	movb	$9, 4(%ebx)
	movb	$0, 72(%ebx)
	movb	$0, 73(%ebx)
	movb	$0, 74(%ebx)
	movb	$0, 75(%ebx)
	movl	$0, 8(%ebx)
	movl	$0, 40(%ebx)
	andl	$3, %eax
	movl	$0, 16(%ebx)
	movl	$0, 52(%ebx)
	movb	%al, 5(%ebx)
	movl	48(%ebp), %eax
	movl	$0, 12(%ebx)
	movl	$0, 44(%ebx)
	movl	$0, 48(%ebx)
	movl	$0, 36(%ebx)
	movl	$0, 28(%ebx)
	movl	$0, 20(%ebx)
	movl	$0, 56(%ebx)
	movl	$0, 24(%ebx)
	movl	$0, 60(%ebx)
	movl	$0, 64(%ebx)
	movl	%eax, 8(%esi)
	xorl	%eax, %eax
	movl	%ebx, (%esi)
	movl	%ebp, 12(%esi)
	movl	%edi, 16(%esi)
	movl	%esi, 48(%ebp)
	movl	$0, 24(%esi)
	movl	$-1, 28(%esi)
	movw	%ax, 48(%esi)
	movb	$0, 50(%esi)
	movl	64(%ebp), %eax
	movl	$-1, 32(%esi)
	movl	$0, 36(%esi)
	movl	$0, 40(%esi)
	movl	$0, 44(%esi)
	movl	$0, 20(%esi)
	movl	%eax, 32(%ebx)
	movl	%edi, %eax
	movb	$2, 75(%ebx)
	call	_luaH_new.constprop.166
	movl	8(%edi), %edx
	movl	%eax, 4(%esi)
	movl	%eax, (%edx)
	movl	$5, 8(%edx)
	movl	8(%edi), %eax
	movl	28(%edi), %edx
	subl	%eax, %edx
	cmpl	$16, %edx
	jle	L2050
L2047:
	leal	16(%eax), %edx
	movl	%edx, 8(%edi)
	movl	%ebx, 16(%eax)
	movl	$9, 24(%eax)
	movl	28(%edi), %edx
	movl	8(%edi), %eax
	subl	%eax, %edx
	cmpl	$16, %edx
	jg	L2048
	movl	%edi, %eax
	movl	$1, %edx
	call	_luaD_growstack
	movl	8(%edi), %eax
L2048:
	addl	$16, %eax
	movl	%eax, 8(%edi)
	addl	$28, %esp
	.cfi_remember_state
	.cfi_def_cfa_offset 20
	popl	%ebx
	.cfi_restore 3
	.cfi_def_cfa_offset 16
	popl	%esi
	.cfi_restore 6
	.cfi_def_cfa_offset 12
	popl	%edi
	.cfi_restore 7
	.cfi_def_cfa_offset 8
	popl	%ebp
	.cfi_restore 5
	.cfi_def_cfa_offset 4
	ret
	.p2align 4,,10
L2050:
	.cfi_restore_state
	movl	%edi, %eax
	movl	$1, %edx
	call	_luaD_growstack
	movl	8(%edi), %eax
	jmp	L2047
	.cfi_endproc
LFE292:
	.section	.text.unlikely,"x"
LCOLDE148:
	.text
LHOTE148:
	.section .rdata,"dr"
LC149:
	.ascii "constant table overflow\0"
	.section	.text.unlikely,"x"
LCOLDB150:
	.text
LHOTB150:
	.p2align 4,,15
	.def	_addk;	.scl	3;	.type	32;	.endef
_addk:
LFB232:
	.cfi_startproc
	pushl	%ebp
	.cfi_def_cfa_offset 8
	.cfi_offset 5, -8
	pushl	%edi
	.cfi_def_cfa_offset 12
	.cfi_offset 7, -12
	movl	%ecx, %ebp
	pushl	%esi
	.cfi_def_cfa_offset 16
	.cfi_offset 6, -16
	pushl	%ebx
	.cfi_def_cfa_offset 20
	.cfi_offset 3, -20
	movl	%eax, %esi
	movl	%edx, %edi
	subl	$44, %esp
	.cfi_def_cfa_offset 64
	movl	16(%eax), %eax
	movl	4(%esi), %ebx
	movl	%eax, 20(%esp)
	movl	%ebx, %eax
	call	_luaH_get
	cmpl	$_luaO_nilobject_, %eax
	movb	$0, 6(%ebx)
	je	L2077
	cmpl	$3, 8(%eax)
	je	L2078
L2056:
	movl	(%esi), %edi
	fildl	40(%esi)
	movl	40(%edi), %ebx
	fstpl	(%eax)
	movl	$3, 8(%eax)
	movl	40(%edi), %eax
	cmpl	%eax, 40(%esi)
	jge	L2058
	movl	8(%edi), %edx
L2059:
	cmpl	%eax, %ebx
	jge	L2064
	sall	$4, %ebx
	sall	$4, %eax
	addl	%edx, %ebx
	addl	%edx, %eax
	.p2align 4,,10
L2063:
	movl	$0, 8(%ebx)
	addl	$16, %ebx
	cmpl	%ebx, %eax
	jne	L2063
L2064:
	movl	40(%esi), %eax
	movl	4(%ebp), %ebx
	movl	%eax, %ecx
	sall	$4, %ecx
	addl	%ecx, %edx
	movl	0(%ebp), %ecx
	movl	%ebx, 4(%edx)
	movl	%ecx, (%edx)
	movl	8(%ebp), %ecx
	movl	%ecx, 8(%edx)
	cmpl	$3, 8(%ebp)
	jle	L2062
	movl	0(%ebp), %edx
	testb	$3, 5(%edx)
	je	L2062
	movzbl	5(%edi), %ecx
	testb	$4, %cl
	je	L2062
	movl	20(%esp), %eax
	movl	16(%eax), %eax
	cmpb	$1, 21(%eax)
	je	L2079
	movzbl	20(%eax), %eax
	andl	$-8, %ecx
	andl	$3, %eax
	orl	%eax, %ecx
	movb	%cl, 5(%edi)
	movl	40(%esi), %eax
L2062:
	leal	1(%eax), %edx
	movl	%edx, 40(%esi)
	addl	$44, %esp
	.cfi_remember_state
	.cfi_def_cfa_offset 20
	popl	%ebx
	.cfi_restore 3
	.cfi_def_cfa_offset 16
	popl	%esi
	.cfi_restore 6
	.cfi_def_cfa_offset 12
	popl	%edi
	.cfi_restore 7
	.cfi_def_cfa_offset 8
	popl	%ebp
	.cfi_restore 5
	.cfi_def_cfa_offset 4
	ret
	.p2align 4,,10
L2058:
	.cfi_restore_state
	movl	8(%edi), %edx
	movl	20(%esp), %eax
	leal	40(%edi), %ecx
	movl	$LC149, 8(%esp)
	movl	$262143, 4(%esp)
	movl	$16, (%esp)
	call	_luaM_growaux_
	movl	%eax, 8(%edi)
	movl	%eax, %edx
	movl	40(%edi), %eax
	jmp	L2059
	.p2align 4,,10
L2077:
	movl	8(%edi), %eax
	testl	%eax, %eax
	je	L2080
	cmpl	$3, %eax
	je	L2081
L2054:
	movl	20(%esp), %eax
	movl	%edi, %ecx
	movl	%ebx, %edx
	call	_newkey
	cmpl	$3, 8(%eax)
	jne	L2056
L2078:
	fldl	(%eax)
	fnstcw	30(%esp)
	movzwl	30(%esp), %eax
	movb	$12, %ah
	movw	%ax, 28(%esp)
	fldcw	28(%esp)
	fistpl	24(%esp)
	fldcw	30(%esp)
	movl	24(%esp), %eax
	addl	$44, %esp
	.cfi_remember_state
	.cfi_def_cfa_offset 20
	popl	%ebx
	.cfi_restore 3
	.cfi_def_cfa_offset 16
	popl	%esi
	.cfi_restore 6
	.cfi_def_cfa_offset 12
	popl	%edi
	.cfi_restore 7
	.cfi_def_cfa_offset 8
	popl	%ebp
	.cfi_restore 5
	.cfi_def_cfa_offset 4
	ret
L2080:
	.cfi_restore_state
	movl	20(%esp), %eax
	movl	$LC132, 4(%esp)
	movl	%eax, (%esp)
	call	_luaG_runerror
	jmp	L2054
L2081:
	fldl	(%edi)
	fucomip	%st(0), %st
	jnp	L2054
	movl	20(%esp), %eax
	movl	$LC133, 4(%esp)
	movl	%eax, (%esp)
	call	_luaG_runerror
	jmp	L2054
L2079:
	call	_reallymarkobject
	movl	40(%esi), %eax
	jmp	L2062
	.cfi_endproc
LFE232:
	.section	.text.unlikely,"x"
LCOLDE150:
	.text
LHOTE150:
	.section	.text.unlikely,"x"
LCOLDB151:
	.text
LHOTB151:
	.p2align 4,,15
	.def	_discharge2reg;	.scl	3;	.type	32;	.endef
_discharge2reg:
LFB241:
	.cfi_startproc
	pushl	%edi
	.cfi_def_cfa_offset 8
	.cfi_offset 7, -8
	pushl	%esi
	.cfi_def_cfa_offset 12
	.cfi_offset 6, -12
	movl	%ecx, %edi
	pushl	%ebx
	.cfi_def_cfa_offset 16
	.cfi_offset 3, -16
	movl	%edx, %ebx
	movl	%eax, %esi
	subl	$16, %esp
	.cfi_def_cfa_offset 32
	call	_luaK_dischargevars
	movl	(%ebx), %eax
	cmpl	$12, %eax
	ja	L2082
	jmp	*L2085(,%eax,4)
	.section .rdata,"dr"
	.align 4
L2085:
	.long	L2082
	.long	L2084
	.long	L2086
	.long	L2086
	.long	L2087
	.long	L2088
	.long	L2082
	.long	L2082
	.long	L2082
	.long	L2082
	.long	L2082
	.long	L2089
	.long	L2090
	.text
	.p2align 4,,10
L2090:
	movl	8(%ebx), %eax
	cmpl	%eax, %edi
	je	L2091
	movl	12(%esi), %edx
	sall	$23, %eax
	movl	8(%edx), %ecx
	movl	%edi, %edx
	sall	$6, %edx
	orl	%eax, %edx
	movl	%esi, %eax
	call	_luaK_code
	.p2align 4,,10
L2091:
	movl	%edi, 8(%ebx)
	movl	$12, (%ebx)
L2082:
	addl	$16, %esp
	.cfi_remember_state
	.cfi_def_cfa_offset 16
	popl	%ebx
	.cfi_restore 3
	.cfi_def_cfa_offset 12
	popl	%esi
	.cfi_restore 6
	.cfi_def_cfa_offset 8
	popl	%edi
	.cfi_restore 7
	.cfi_def_cfa_offset 4
	ret
	.p2align 4,,10
L2084:
	.cfi_restore_state
	movl	$1, %ecx
	movl	%edi, %edx
	movl	%esi, %eax
	call	_luaK_nil
	jmp	L2091
	.p2align 4,,10
L2086:
	movl	12(%esi), %edx
	movl	8(%edx), %ecx
	xorl	%edx, %edx
	cmpl	$2, %eax
	sete	%dl
	sall	$23, %edx
	orl	$2, %edx
L2093:
	movl	%edi, %eax
	sall	$6, %eax
	orl	%eax, %edx
	movl	%esi, %eax
	call	_luaK_code
	jmp	L2091
	.p2align 4,,10
L2087:
	movl	8(%ebx), %edx
	movl	12(%esi), %eax
	sall	$14, %edx
	movl	8(%eax), %ecx
	orl	$1, %edx
	jmp	L2093
	.p2align 4,,10
L2088:
	fldl	8(%ebx)
	movl	%esp, %ecx
	movl	%esp, %edx
	movl	%esi, %eax
	movl	$3, 8(%esp)
	fstpl	(%esp)
	call	_addk
	movl	12(%esi), %edx
	sall	$14, %eax
	movl	8(%edx), %ecx
	movl	%edi, %edx
	sall	$6, %edx
	orl	$1, %edx
	orl	%eax, %edx
	movl	%esi, %eax
	call	_luaK_code
	jmp	L2091
	.p2align 4,,10
L2089:
	movl	(%esi), %eax
	movl	8(%ebx), %edx
	movl	12(%eax), %eax
	leal	(%eax,%edx,4), %ecx
	movl	%edi, %eax
	sall	$6, %eax
	movl	(%ecx), %edx
	andl	$16320, %eax
	andl	$-16321, %edx
	orl	%edx, %eax
	movl	%eax, (%ecx)
	jmp	L2091
	.cfi_endproc
LFE241:
	.section	.text.unlikely,"x"
LCOLDE151:
	.text
LHOTE151:
	.section	.text.unlikely,"x"
LCOLDB152:
	.text
LHOTB152:
	.p2align 4,,15
	.def	_exp2reg;	.scl	3;	.type	32;	.endef
_exp2reg:
LFB243:
	.cfi_startproc
	pushl	%ebp
	.cfi_def_cfa_offset 8
	.cfi_offset 5, -8
	pushl	%edi
	.cfi_def_cfa_offset 12
	.cfi_offset 7, -12
	pushl	%esi
	.cfi_def_cfa_offset 16
	.cfi_offset 6, -16
	pushl	%ebx
	.cfi_def_cfa_offset 20
	.cfi_offset 3, -20
	movl	%edx, %esi
	movl	%eax, %ebx
	subl	$44, %esp
	.cfi_def_cfa_offset 64
	movl	%ecx, 24(%esp)
	call	_discharge2reg
	cmpl	$10, (%esi)
	je	L2121
L2095:
	movl	16(%esi), %eax
	movl	20(%esi), %ebp
	cmpl	%ebp, %eax
	jne	L2097
	jmp	L2096
	.p2align 4,,10
L2122:
	leal	1(%edx,%eax), %eax
L2097:
	cmpl	$-1, %eax
	je	L2102
	movl	(%ebx), %edx
	testl	%eax, %eax
	movl	12(%edx), %edx
	leal	(%edx,%eax,4), %ecx
	jle	L2107
	movl	-4(%ecx), %edi
	leal	-4(%ecx), %edx
	andl	$63, %edi
	cmpb	$0, _luaP_opmodes(%edi)
	cmovns	%ecx, %edx
L2098:
	movl	(%edx), %edx
	andl	$63, %edx
	cmpl	$27, %edx
	jne	L2099
	movl	(%ecx), %edx
	shrl	$14, %edx
	subl	$131071, %edx
	cmpl	$-1, %edx
	jne	L2122
	jmp	L2102
	.p2align 4,,10
L2124:
	leal	1(%ebp,%eax), %ebp
L2102:
	cmpl	$-1, %ebp
	je	L2123
	movl	(%ebx), %eax
	testl	%ebp, %ebp
	movl	12(%eax), %eax
	leal	(%eax,%ebp,4), %edx
	jle	L2109
	movl	-4(%edx), %ecx
	leal	-4(%edx), %eax
	andl	$63, %ecx
	cmpb	$0, _luaP_opmodes(%ecx)
	cmovns	%edx, %eax
L2103:
	movl	(%eax), %eax
	andl	$63, %eax
	cmpl	$27, %eax
	jne	L2099
	movl	(%edx), %eax
	shrl	$14, %eax
	subl	$131071, %eax
	cmpl	$-1, %eax
	jne	L2124
	movl	$-1, 28(%esp)
	movl	$-1, %ebp
L2104:
	movl	24(%ebx), %edi
	movl	%ebp, 4(%esp)
	movl	%ebx, %eax
	movl	24(%esp), %ebp
	movl	%edi, 28(%ebx)
	movl	20(%esi), %edx
	movl	%edi, %ecx
	movl	%ebp, (%esp)
	call	_patchlistaux
	movl	28(%esp), %eax
	movl	16(%esi), %edx
	movl	%edi, %ecx
	movl	%ebp, (%esp)
	movl	%eax, 4(%esp)
	movl	%ebx, %eax
	call	_patchlistaux
L2096:
	movl	24(%esp), %eax
	movl	$-1, 16(%esi)
	movl	$-1, 20(%esi)
	movl	$12, (%esi)
	movl	%eax, 8(%esi)
	addl	$44, %esp
	.cfi_remember_state
	.cfi_def_cfa_offset 20
	popl	%ebx
	.cfi_restore 3
	.cfi_def_cfa_offset 16
	popl	%esi
	.cfi_restore 6
	.cfi_def_cfa_offset 12
	popl	%edi
	.cfi_restore 7
	.cfi_def_cfa_offset 8
	popl	%ebp
	.cfi_restore 5
	.cfi_def_cfa_offset 4
	ret
	.p2align 4,,10
L2099:
	.cfi_restore_state
	cmpl	$10, (%esi)
	movl	$-1, %edi
	je	L2106
	movl	%ebx, %eax
	call	_luaK_jump
	movl	%eax, %edi
L2106:
	movl	24(%ebx), %eax
	movl	%eax, 28(%ebx)
	movl	24(%esp), %eax
	sall	$6, %eax
	movl	%eax, %edx
	movl	12(%ebx), %eax
	movl	%edx, 28(%esp)
	orl	$16386, %edx
	movl	8(%eax), %ecx
	movl	%ebx, %eax
	call	_luaK_code
	movl	%eax, %ebp
	movl	24(%ebx), %eax
	movl	28(%esp), %edx
	movl	%eax, 28(%ebx)
	movl	12(%ebx), %eax
	orl	$8388610, %edx
	movl	8(%eax), %ecx
	movl	%ebx, %eax
	call	_luaK_code
	movl	%eax, 28(%esp)
	movl	24(%ebx), %eax
	leal	32(%ebx), %edx
	movl	%edi, %ecx
	movl	%eax, 28(%ebx)
	movl	%ebx, %eax
	call	_luaK_concat
	jmp	L2104
	.p2align 4,,10
L2121:
	movl	8(%esi), %ecx
	leal	16(%esi), %edx
	movl	%ebx, %eax
	call	_luaK_concat
	jmp	L2095
	.p2align 4,,10
L2107:
	movl	%ecx, %edx
	jmp	L2098
	.p2align 4,,10
L2123:
	movl	$-1, 28(%esp)
	jmp	L2104
L2109:
	movl	%edx, %eax
	jmp	L2103
	.cfi_endproc
LFE243:
	.section	.text.unlikely,"x"
LCOLDE152:
	.text
LHOTE152:
	.section	.text.unlikely,"x"
LCOLDB153:
	.text
LHOTB153:
	.p2align 4,,15
	.def	_luaK_exp2nextreg;	.scl	3;	.type	32;	.endef
_luaK_exp2nextreg:
LFB244:
	.cfi_startproc
	pushl	%esi
	.cfi_def_cfa_offset 8
	.cfi_offset 6, -8
	pushl	%ebx
	.cfi_def_cfa_offset 12
	.cfi_offset 3, -12
	movl	%edx, %esi
	movl	%eax, %ebx
	subl	$4, %esp
	.cfi_def_cfa_offset 16
	call	_luaK_dischargevars
	cmpl	$12, (%esi)
	je	L2128
L2126:
	movl	%ebx, %eax
	movl	$1, %edx
	call	_luaK_checkstack
	movl	36(%ebx), %ecx
	movl	%esi, %edx
	leal	1(%ecx), %eax
	movl	%eax, 36(%ebx)
	addl	$4, %esp
	.cfi_remember_state
	.cfi_def_cfa_offset 12
	movl	%ebx, %eax
	popl	%ebx
	.cfi_restore 3
	.cfi_def_cfa_offset 8
	popl	%esi
	.cfi_restore 6
	.cfi_def_cfa_offset 4
	jmp	_exp2reg
	.p2align 4,,10
L2128:
	.cfi_restore_state
	movl	8(%esi), %eax
	testb	$1, %ah
	jne	L2126
	movzbl	50(%ebx), %edx
	cmpl	%edx, %eax
	jl	L2126
	subl	$1, 36(%ebx)
	jmp	L2126
	.cfi_endproc
LFE244:
	.section	.text.unlikely,"x"
LCOLDE153:
	.text
LHOTE153:
	.section	.text.unlikely,"x"
LCOLDB154:
	.text
LHOTB154:
	.p2align 4,,15
	.def	_adjust_assign.isra.94;	.scl	3;	.type	32;	.endef
_adjust_assign.isra.94:
LFB658:
	.cfi_startproc
	pushl	%edi
	.cfi_def_cfa_offset 8
	.cfi_offset 7, -8
	pushl	%esi
	.cfi_def_cfa_offset 12
	.cfi_offset 6, -12
	movl	%eax, %esi
	pushl	%ebx
	.cfi_def_cfa_offset 16
	.cfi_offset 3, -16
	movl	%edx, %ebx
	subl	%ecx, %ebx
	subl	$16, %esp
	.cfi_def_cfa_offset 32
	movl	32(%esp), %eax
	movl	(%eax), %edx
	leal	-13(%edx), %ecx
	cmpl	$1, %ecx
	jbe	L2140
	testl	%edx, %edx
	jne	L2141
L2134:
	testl	%ebx, %ebx
	jle	L2129
	movl	36(%esi), %edi
	movl	%ebx, %edx
	movl	%esi, %eax
	call	_luaK_checkstack
	addl	%ebx, 36(%esi)
	addl	$16, %esp
	.cfi_remember_state
	.cfi_def_cfa_offset 16
	movl	%ebx, %ecx
	movl	%edi, %edx
	movl	%esi, %eax
	popl	%ebx
	.cfi_restore 3
	.cfi_def_cfa_offset 12
	popl	%esi
	.cfi_restore 6
	.cfi_def_cfa_offset 8
	popl	%edi
	.cfi_restore 7
	.cfi_def_cfa_offset 4
	jmp	_luaK_nil
	.p2align 4,,10
L2140:
	.cfi_restore_state
	movl	%ebx, %edi
	leal	8(%eax), %ecx
	addl	$1, %edi
	js	L2131
	movl	%edi, (%esp)
	movl	%esi, %eax
	call	_luaK_setreturns.isra.92
	cmpl	$1, %edi
	jle	L2129
	movl	%ebx, %edx
	movl	%esi, %eax
	call	_luaK_checkstack
	addl	%ebx, 36(%esi)
L2129:
	addl	$16, %esp
	.cfi_remember_state
	.cfi_def_cfa_offset 16
	popl	%ebx
	.cfi_restore 3
	.cfi_def_cfa_offset 12
	popl	%esi
	.cfi_restore 6
	.cfi_def_cfa_offset 8
	popl	%edi
	.cfi_restore 7
	.cfi_def_cfa_offset 4
	ret
	.p2align 4,,10
L2141:
	.cfi_restore_state
	movl	%eax, %edx
	movl	%esi, %eax
	call	_luaK_exp2nextreg
	jmp	L2134
	.p2align 4,,10
L2131:
	movl	$0, 32(%esp)
	addl	$16, %esp
	.cfi_def_cfa_offset 16
	movl	%esi, %eax
	popl	%ebx
	.cfi_restore 3
	.cfi_def_cfa_offset 12
	popl	%esi
	.cfi_restore 6
	.cfi_def_cfa_offset 8
	popl	%edi
	.cfi_restore 7
	.cfi_def_cfa_offset 4
	jmp	_luaK_setreturns.isra.92
	.cfi_endproc
LFE658:
	.section	.text.unlikely,"x"
LCOLDE154:
	.text
LHOTE154:
	.section	.text.unlikely,"x"
LCOLDB155:
	.text
LHOTB155:
	.p2align 4,,15
	.def	_luaK_exp2anyreg;	.scl	3;	.type	32;	.endef
_luaK_exp2anyreg:
LFB245:
	.cfi_startproc
	pushl	%esi
	.cfi_def_cfa_offset 8
	.cfi_offset 6, -8
	pushl	%ebx
	.cfi_def_cfa_offset 12
	.cfi_offset 3, -12
	movl	%edx, %ebx
	movl	%eax, %esi
	subl	$4, %esp
	.cfi_def_cfa_offset 16
	call	_luaK_dischargevars
	cmpl	$12, (%ebx)
	je	L2148
L2143:
	movl	%ebx, %edx
	movl	%esi, %eax
	call	_luaK_exp2nextreg
L2147:
	movl	8(%ebx), %eax
L2145:
	addl	$4, %esp
	.cfi_remember_state
	.cfi_def_cfa_offset 12
	popl	%ebx
	.cfi_restore 3
	.cfi_def_cfa_offset 8
	popl	%esi
	.cfi_restore 6
	.cfi_def_cfa_offset 4
	ret
	.p2align 4,,10
L2148:
	.cfi_restore_state
	movl	20(%ebx), %eax
	cmpl	%eax, 16(%ebx)
	je	L2147
	movzbl	50(%esi), %eax
	movl	8(%ebx), %ecx
	cmpl	%eax, %ecx
	jl	L2143
	movl	%esi, %eax
	movl	%ebx, %edx
	call	_exp2reg
	movl	8(%ebx), %eax
	jmp	L2145
	.cfi_endproc
LFE245:
	.section	.text.unlikely,"x"
LCOLDE155:
	.text
LHOTE155:
	.section	.text.unlikely,"x"
LCOLDB156:
	.text
LHOTB156:
	.p2align 4,,15
	.def	_luaK_exp2RK;	.scl	3;	.type	32;	.endef
_luaK_exp2RK:
LFB247:
	.cfi_startproc
	pushl	%esi
	.cfi_def_cfa_offset 8
	.cfi_offset 6, -8
	pushl	%ebx
	.cfi_def_cfa_offset 12
	.cfi_offset 3, -12
	movl	%eax, %esi
	movl	%edx, %ebx
	subl	$36, %esp
	.cfi_def_cfa_offset 48
	movl	20(%edx), %eax
	cmpl	%eax, 16(%edx)
	movl	%esi, %eax
	je	L2150
	call	_luaK_exp2anyreg
	movl	(%ebx), %eax
	cmpl	$4, %eax
	je	L2153
L2166:
	ja	L2154
	cmpl	$1, %eax
	jnb	L2155
L2152:
	movl	%ebx, %edx
	movl	%esi, %eax
	call	_luaK_exp2anyreg
	addl	$36, %esp
	.cfi_remember_state
	.cfi_def_cfa_offset 12
	popl	%ebx
	.cfi_restore 3
	.cfi_def_cfa_offset 8
	popl	%esi
	.cfi_restore 6
	.cfi_def_cfa_offset 4
	ret
	.p2align 4,,10
L2154:
	.cfi_restore_state
	cmpl	$5, %eax
	jne	L2152
L2155:
	cmpl	$255, 40(%esi)
	jg	L2152
	cmpl	$1, %eax
	je	L2164
	cmpl	$5, %eax
	je	L2165
	cmpl	$2, %eax
	leal	16(%esp), %ecx
	movl	$1, 24(%esp)
	sete	%al
	movzbl	%al, %eax
	movl	%ecx, %edx
	movl	%eax, 16(%esp)
	movl	%esi, %eax
	call	_addk
L2157:
	movl	%eax, 8(%ebx)
	movl	$4, (%ebx)
	addl	$36, %esp
	.cfi_remember_state
	.cfi_def_cfa_offset 12
	orb	$1, %ah
	popl	%ebx
	.cfi_restore 3
	.cfi_def_cfa_offset 8
	popl	%esi
	.cfi_restore 6
	.cfi_def_cfa_offset 4
	ret
	.p2align 4,,10
L2150:
	.cfi_restore_state
	call	_luaK_dischargevars
	movl	(%ebx), %eax
	cmpl	$4, %eax
	jne	L2166
L2153:
	movl	8(%ebx), %eax
	cmpl	$255, %eax
	jg	L2152
	addl	$36, %esp
	.cfi_remember_state
	.cfi_def_cfa_offset 12
	orb	$1, %ah
	popl	%ebx
	.cfi_restore 3
	.cfi_def_cfa_offset 8
	popl	%esi
	.cfi_restore 6
	.cfi_def_cfa_offset 4
	ret
	.p2align 4,,10
L2165:
	.cfi_restore_state
	leal	16(%esp), %ecx
	fldl	8(%ebx)
	movl	%esi, %eax
	movl	$3, 24(%esp)
	movl	%ecx, %edx
	fstpl	16(%esp)
	call	_addk
	jmp	L2157
	.p2align 4,,10
L2164:
	movl	4(%esi), %eax
	leal	16(%esp), %ecx
	movl	%esp, %edx
	movl	$0, 24(%esp)
	movl	$5, 8(%esp)
	movl	%eax, (%esp)
	movl	%esi, %eax
	call	_addk
	jmp	L2157
	.cfi_endproc
LFE247:
	.section	.text.unlikely,"x"
LCOLDE156:
	.text
LHOTE156:
	.section	.text.unlikely,"x"
LCOLDB157:
	.text
LHOTB157:
	.p2align 4,,15
	.def	_codearith;	.scl	3;	.type	32;	.endef
_codearith:
LFB257:
	.cfi_startproc
	pushl	%ebp
	.cfi_def_cfa_offset 8
	.cfi_offset 5, -8
	pushl	%edi
	.cfi_def_cfa_offset 12
	.cfi_offset 7, -12
	movl	%edx, %ebp
	pushl	%esi
	.cfi_def_cfa_offset 16
	.cfi_offset 6, -16
	pushl	%ebx
	.cfi_def_cfa_offset 20
	.cfi_offset 3, -20
	movl	%eax, %esi
	movl	%ecx, %ebx
	subl	$44, %esp
	.cfi_def_cfa_offset 64
	cmpl	$5, (%ecx)
	je	L2203
	jmp	L2168
	.p2align 4,,10
L2211:
	fstp	%st(0)
	fstp	%st(0)
	jmp	L2168
L2212:
	fstp	%st(0)
	jmp	L2168
	.p2align 4,,10
L2213:
	fstp	%st(0)
	fstp	%st(0)
	jmp	L2168
	.p2align 4,,10
L2214:
	fstp	%st(0)
	fstp	%st(0)
	.p2align 4,,10
L2168:
	leal	-18(%ebp), %eax
	xorl	%ecx, %ecx
	movl	$0, 16(%esp)
	andl	$-3, %eax
	jne	L2204
L2185:
	movl	%ebx, %edx
	movl	%esi, %eax
	movl	%ecx, 24(%esp)
	call	_luaK_exp2RK
	movl	24(%esp), %ecx
	movl	%eax, %edi
	cmpl	%ecx, %eax
	jg	L2205
	movl	64(%esp), %eax
	cmpl	$12, (%eax)
	je	L2206
L2190:
	cmpl	$12, (%ebx)
	je	L2207
L2189:
	movl	12(%esi), %eax
	orl	16(%esp), %ebp
	sall	$23, %edi
	movl	%edi, %edx
	movl	8(%eax), %ecx
	movl	%esi, %eax
	orl	%ebp, %edx
	call	_luaK_code
	movl	$11, (%ebx)
	movl	%eax, 8(%ebx)
	addl	$44, %esp
	.cfi_remember_state
	.cfi_def_cfa_offset 20
	popl	%ebx
	.cfi_restore 3
	.cfi_def_cfa_offset 16
	popl	%esi
	.cfi_restore 6
	.cfi_def_cfa_offset 12
	popl	%edi
	.cfi_restore 7
	.cfi_def_cfa_offset 8
	popl	%ebp
	.cfi_restore 5
	.cfi_def_cfa_offset 4
	ret
	.p2align 4,,10
L2205:
	.cfi_restore_state
	cmpl	$12, (%ebx)
	je	L2208
L2187:
	movl	64(%esp), %eax
	cmpl	$12, (%eax)
	jne	L2189
	leal	8(%eax), %edx
	movl	%esi, %eax
	call	_freeexp.isra.26.part.27
	jmp	L2189
	.p2align 4,,10
L2203:
	cmpl	$-1, 16(%ecx)
	jne	L2168
	cmpl	$-1, 20(%ecx)
	jne	L2168
	movl	64(%esp), %eax
	cmpl	$5, (%eax)
	jne	L2168
	cmpl	$-1, 16(%eax)
	jne	L2168
	cmpl	$-1, 20(%eax)
	jne	L2168
	fldl	8(%ebx)
	fldl	8(%eax)
	leal	-12(%ebp), %eax
	cmpl	$8, %eax
	ja	L2209
	jmp	*L2193(,%eax,4)
	.section .rdata,"dr"
	.align 4
L2193:
	.long	L2171
	.long	L2173
	.long	L2174
	.long	L2175
	.long	L2179
	.long	L2182
	.long	L2183
	.long	L2210
	.long	L2211
	.text
	.p2align 4,,10
L2204:
	movl	64(%esp), %edx
	movl	%esi, %eax
	call	_luaK_exp2RK
	movl	%eax, %ecx
	sall	$14, %eax
	movl	%eax, 16(%esp)
	jmp	L2185
	.p2align 4,,10
L2183:
	fstp	%st(0)
	fchs
	.p2align 4,,10
L2172:
	fucomi	%st(0), %st
	jp	L2212
L2198:
	fstpl	8(%ebx)
	addl	$44, %esp
	.cfi_remember_state
	.cfi_def_cfa_offset 20
	popl	%ebx
	.cfi_restore 3
	.cfi_def_cfa_offset 16
	popl	%esi
	.cfi_restore 6
	.cfi_def_cfa_offset 12
	popl	%edi
	.cfi_restore 7
	.cfi_def_cfa_offset 8
	popl	%ebp
	.cfi_restore 5
	.cfi_def_cfa_offset 4
	ret
	.p2align 4,,10
L2182:
	.cfi_restore_state
	fstpl	8(%esp)
	fstpl	(%esp)
	call	_pow
	jmp	L2172
	.p2align 4,,10
L2179:
	fldz
	fxch	%st(1)
	fucomi	%st(1), %st
	fstp	%st(1)
	jp	L2196
	je	L2213
L2196:
	fld	%st(1)
	fstpl	24(%esp)
	fdivr	%st, %st(1)
	fstpl	16(%esp)
	fstpl	(%esp)
	call	_floor
	fldl	16(%esp)
	fmulp	%st, %st(1)
	fldl	24(%esp)
	fsubp	%st, %st(1)
	jmp	L2172
	.p2align 4,,10
L2175:
	fldz
	fxch	%st(1)
	fucomi	%st(1), %st
	fstp	%st(1)
	jp	L2176
	je	L2214
L2176:
	fdivrp	%st, %st(1)
	jmp	L2172
	.p2align 4,,10
L2174:
	fmulp	%st, %st(1)
	jmp	L2172
	.p2align 4,,10
L2173:
	fsubrp	%st, %st(1)
	jmp	L2172
	.p2align 4,,10
L2171:
	faddp	%st, %st(1)
	jmp	L2172
	.p2align 4,,10
L2209:
	fstp	%st(0)
	fstp	%st(0)
	jmp	L2195
	.p2align 4,,10
L2210:
	fstp	%st(0)
	fstp	%st(0)
L2195:
	fldz
	jmp	L2198
	.p2align 4,,10
L2207:
	leal	8(%ebx), %edx
	movl	%esi, %eax
	call	_freeexp.isra.26.part.27
	jmp	L2189
	.p2align 4,,10
L2208:
	leal	8(%ebx), %edx
	movl	%esi, %eax
	call	_freeexp.isra.26.part.27
	jmp	L2187
	.p2align 4,,10
L2206:
	leal	8(%eax), %edx
	movl	%esi, %eax
	call	_freeexp.isra.26.part.27
	jmp	L2190
	.cfi_endproc
LFE257:
	.section	.text.unlikely,"x"
LCOLDE157:
	.text
LHOTE157:
	.section	.text.unlikely,"x"
LCOLDB158:
	.text
LHOTB158:
	.p2align 4,,15
	.def	_codecomp;	.scl	3;	.type	32;	.endef
_codecomp:
LFB258:
	.cfi_startproc
	pushl	%ebp
	.cfi_def_cfa_offset 8
	.cfi_offset 5, -8
	pushl	%edi
	.cfi_def_cfa_offset 12
	.cfi_offset 7, -12
	pushl	%esi
	.cfi_def_cfa_offset 16
	.cfi_offset 6, -16
	pushl	%ebx
	.cfi_def_cfa_offset 20
	.cfi_offset 3, -20
	movl	%eax, %esi
	subl	$28, %esp
	.cfi_def_cfa_offset 48
	movl	48(%esp), %edi
	movl	52(%esp), %ebp
	movl	%edx, 4(%esp)
	movl	%ecx, 8(%esp)
	movl	%edi, %edx
	call	_luaK_exp2RK
	movl	%ebp, %edx
	movl	%eax, %ebx
	movl	%esi, %eax
	call	_luaK_exp2RK
	cmpl	$12, 0(%ebp)
	movl	%eax, %ecx
	je	L2226
L2216:
	cmpl	$12, (%edi)
	je	L2227
L2217:
	movl	8(%esp), %eax
	testl	%eax, %eax
	jne	L2221
	cmpl	$23, 4(%esp)
	movl	$64, %ebp
	je	L2221
L2218:
	movl	12(%esi), %eax
	movl	4(%esp), %edx
	sall	$23, %ecx
	sall	$14, %ebx
	movl	8(%eax), %eax
	orl	%ebp, %edx
	orl	%ecx, %edx
	orl	%ebx, %edx
	movl	%eax, %ecx
	movl	%esi, %eax
	call	_luaK_code
	movl	%esi, %eax
	call	_luaK_jump
	movl	$10, (%edi)
	movl	%eax, 8(%edi)
	addl	$28, %esp
	.cfi_remember_state
	.cfi_def_cfa_offset 20
	popl	%ebx
	.cfi_restore 3
	.cfi_def_cfa_offset 16
	popl	%esi
	.cfi_restore 6
	.cfi_def_cfa_offset 12
	popl	%edi
	.cfi_restore 7
	.cfi_def_cfa_offset 8
	popl	%ebp
	.cfi_restore 5
	.cfi_def_cfa_offset 4
	ret
	.p2align 4,,10
L2221:
	.cfi_restore_state
	movl	8(%esp), %ebp
	movl	%ecx, %eax
	movl	%ebx, %ecx
	movl	%eax, %ebx
	sall	$6, %ebp
	jmp	L2218
	.p2align 4,,10
L2227:
	leal	8(%edi), %edx
	movl	%esi, %eax
	movl	%ecx, 12(%esp)
	call	_freeexp.isra.26.part.27
	movl	12(%esp), %ecx
	jmp	L2217
	.p2align 4,,10
L2226:
	leal	8(%ebp), %edx
	movl	%eax, 12(%esp)
	movl	%esi, %eax
	call	_freeexp.isra.26.part.27
	movl	12(%esp), %ecx
	jmp	L2216
	.cfi_endproc
LFE258:
	.section	.text.unlikely,"x"
LCOLDE158:
	.text
LHOTE158:
	.section	.text.unlikely,"x"
LCOLDB159:
	.text
LHOTB159:
	.p2align 4,,15
	.def	_luaK_storevar;	.scl	3;	.type	32;	.endef
_luaK_storevar:
LFB248:
	.cfi_startproc
	pushl	%edi
	.cfi_def_cfa_offset 8
	.cfi_offset 7, -8
	pushl	%esi
	.cfi_def_cfa_offset 12
	.cfi_offset 6, -12
	movl	%eax, %esi
	pushl	%ebx
	.cfi_def_cfa_offset 16
	.cfi_offset 3, -16
	movl	(%edx), %eax
	movl	%edx, %edi
	movl	%ecx, %ebx
	cmpl	$7, %eax
	je	L2230
	jbe	L2238
	cmpl	$8, %eax
	je	L2233
	cmpl	$9, %eax
	jne	L2229
	movl	%ecx, %edx
	movl	%esi, %eax
	call	_luaK_exp2RK
	movl	12(%esi), %edx
	sall	$14, %eax
	movl	8(%edx), %ecx
	movl	8(%edi), %edx
	movl	12(%edi), %edi
	sall	$6, %edx
	sall	$23, %edi
	orl	%edx, %edi
	orl	$9, %edi
	orl	%eax, %edi
	movl	%esi, %eax
	movl	%edi, %edx
	call	_luaK_code
L2229:
	cmpl	$12, (%ebx)
	je	L2239
L2228:
	popl	%ebx
	.cfi_remember_state
	.cfi_restore 3
	.cfi_def_cfa_offset 12
	popl	%esi
	.cfi_restore 6
	.cfi_def_cfa_offset 8
	popl	%edi
	.cfi_restore 7
	.cfi_def_cfa_offset 4
	ret
	.p2align 4,,10
L2233:
	.cfi_restore_state
	movl	%ecx, %edx
	movl	%esi, %eax
	call	_luaK_exp2anyreg
	movl	12(%esi), %edx
	sall	$6, %eax
	movl	8(%edx), %ecx
	movl	8(%edi), %edx
	sall	$14, %edx
	orl	$7, %edx
	orl	%eax, %edx
	movl	%esi, %eax
	call	_luaK_code
	cmpl	$12, (%ebx)
	jne	L2228
L2239:
	leal	8(%ebx), %edx
	movl	%esi, %eax
	popl	%ebx
	.cfi_remember_state
	.cfi_restore 3
	.cfi_def_cfa_offset 12
	popl	%esi
	.cfi_restore 6
	.cfi_def_cfa_offset 8
	popl	%edi
	.cfi_restore 7
	.cfi_def_cfa_offset 4
	jmp	_freeexp.isra.26.part.27
	.p2align 4,,10
L2238:
	.cfi_restore_state
	cmpl	$6, %eax
	jne	L2229
	cmpl	$12, (%ecx)
	je	L2240
L2235:
	movl	8(%edi), %ecx
	movl	%ebx, %edx
	movl	%esi, %eax
	popl	%ebx
	.cfi_remember_state
	.cfi_restore 3
	.cfi_def_cfa_offset 12
	popl	%esi
	.cfi_restore 6
	.cfi_def_cfa_offset 8
	popl	%edi
	.cfi_restore 7
	.cfi_def_cfa_offset 4
	jmp	_exp2reg
	.p2align 4,,10
L2230:
	.cfi_restore_state
	movl	%ecx, %edx
	movl	%esi, %eax
	call	_luaK_exp2anyreg
	movl	12(%esi), %edx
	sall	$6, %eax
	movl	8(%edx), %ecx
	movl	8(%edi), %edx
	sall	$23, %edx
	orl	$8, %edx
	orl	%eax, %edx
	movl	%esi, %eax
	call	_luaK_code
	jmp	L2229
	.p2align 4,,10
L2240:
	leal	8(%ecx), %edx
	movl	%esi, %eax
	call	_freeexp.isra.26.part.27
	jmp	L2235
	.cfi_endproc
LFE248:
	.section	.text.unlikely,"x"
LCOLDE159:
	.text
LHOTE159:
	.section .rdata,"dr"
LC160:
	.ascii "loop in settable\0"
	.section	.text.unlikely,"x"
LCOLDB161:
	.text
LHOTB161:
	.p2align 4,,15
	.def	_luaV_settable;	.scl	3;	.type	32;	.endef
_luaV_settable:
LFB341:
	.cfi_startproc
	pushl	%ebp
	.cfi_def_cfa_offset 8
	.cfi_offset 5, -8
	pushl	%edi
	.cfi_def_cfa_offset 12
	.cfi_offset 7, -12
	movl	$100, %ebp
	pushl	%esi
